
led_blink.elf:     file format elf32-littlearm

Sections:
Idx Name          Size      VMA       LMA       File off  Algn
  0 .isr_vector   000000b8  08000000  08000000  00001000  2**0
                  CONTENTS, ALLOC, LOAD, READONLY, DATA
  1 .text         00002640  080000b8  080000b8  000010b8  2**2
                  CONTENTS, ALLOC, LOAD, READONLY, CODE
  2 .rodata       00000094  080026f8  080026f8  000036f8  2**2
                  CONTENTS, ALLOC, LOAD, READONLY, DATA
  3 .ARM.extab    00000000  0800278c  0800278c  0000400c  2**0
                  CONTENTS, READONLY
  4 .ARM          00000000  0800278c  0800278c  0000400c  2**0
                  CONTENTS, READONLY
  5 .preinit_array 00000000  0800278c  0800278c  0000400c  2**0
                  CONTENTS, ALLOC, LOAD, DATA
  6 .init_array   00000004  0800278c  0800278c  0000378c  2**2
                  CONTENTS, ALLOC, LOAD, READONLY, DATA
  7 .fini_array   00000004  08002790  08002790  00003790  2**2
                  CONTENTS, ALLOC, LOAD, READONLY, DATA
  8 .data         0000000c  20000000  08002794  00004000  2**2
                  CONTENTS, ALLOC, LOAD, DATA
  9 .bss          0000006c  2000000c  080027a0  0000400c  2**2
                  ALLOC
 10 ._user_heap_stack 00000600  20000078  080027a0  00004078  2**0
                  ALLOC
 11 .ARM.attributes 00000028  00000000  00000000  0000400c  2**0
                  CONTENTS, READONLY
 12 .debug_info   00009204  00000000  00000000  00004034  2**0
                  CONTENTS, READONLY, DEBUGGING, OCTETS
 13 .debug_abbrev 00001811  00000000  00000000  0000d238  2**0
                  CONTENTS, READONLY, DEBUGGING, OCTETS
 14 .debug_aranges 00000a08  00000000  00000000  0000ea50  2**3
                  CONTENTS, READONLY, DEBUGGING, OCTETS
 15 .debug_rnglists 000007c5  00000000  00000000  0000f458  2**0
                  CONTENTS, READONLY, DEBUGGING, OCTETS
 16 .debug_macro  00013d8b  00000000  00000000  0000fc1d  2**0
                  CONTENTS, READONLY, DEBUGGING, OCTETS
 17 .debug_line   0000b249  00000000  00000000  000239a8  2**0
                  CONTENTS, READONLY, DEBUGGING, OCTETS
 18 .debug_str    00080788  00000000  00000000  0002ebf1  2**0
                  CONTENTS, READONLY, DEBUGGING, OCTETS
 19 .comment      00000043  00000000  00000000  000af379  2**0
                  CONTENTS, READONLY
 20 .debug_frame  000023dc  00000000  00000000  000af3bc  2**2
                  CONTENTS, READONLY, DEBUGGING, OCTETS
 21 .debug_line_str 00000060  00000000  00000000  000b1798  2**0
                  CONTENTS, READONLY, DEBUGGING, OCTETS

Disassembly of section .text:

080000b8 <__do_global_dtors_aux>:
 80000b8:	b510      	push	{r4, lr}
 80000ba:	4c06      	ldr	r4, [pc, #24]	@ (80000d4 <__do_global_dtors_aux+0x1c>)
 80000bc:	7823      	ldrb	r3, [r4, #0]
 80000be:	2b00      	cmp	r3, #0
 80000c0:	d107      	bne.n	80000d2 <__do_global_dtors_aux+0x1a>
 80000c2:	4b05      	ldr	r3, [pc, #20]	@ (80000d8 <__do_global_dtors_aux+0x20>)
 80000c4:	2b00      	cmp	r3, #0
 80000c6:	d002      	beq.n	80000ce <__do_global_dtors_aux+0x16>
 80000c8:	4804      	ldr	r0, [pc, #16]	@ (80000dc <__do_global_dtors_aux+0x24>)
 80000ca:	e000      	b.n	80000ce <__do_global_dtors_aux+0x16>
 80000cc:	bf00      	nop
 80000ce:	2301      	movs	r3, #1
 80000d0:	7023      	strb	r3, [r4, #0]
 80000d2:	bd10      	pop	{r4, pc}
 80000d4:	2000000c 	.word	0x2000000c
 80000d8:	00000000 	.word	0x00000000
 80000dc:	080026e0 	.word	0x080026e0

080000e0 <frame_dummy>:
 80000e0:	4b04      	ldr	r3, [pc, #16]	@ (80000f4 <frame_dummy+0x14>)
 80000e2:	b510      	push	{r4, lr}
 80000e4:	2b00      	cmp	r3, #0
 80000e6:	d003      	beq.n	80000f0 <frame_dummy+0x10>
 80000e8:	4903      	ldr	r1, [pc, #12]	@ (80000f8 <frame_dummy+0x18>)
 80000ea:	4804      	ldr	r0, [pc, #16]	@ (80000fc <frame_dummy+0x1c>)
 80000ec:	e000      	b.n	80000f0 <frame_dummy+0x10>
 80000ee:	bf00      	nop
 80000f0:	bd10      	pop	{r4, pc}
 80000f2:	46c0      	nop			@ (mov r8, r8)
 80000f4:	00000000 	.word	0x00000000
 80000f8:	20000010 	.word	0x20000010
 80000fc:	080026e0 	.word	0x080026e0

08000100 <__udivsi3>:
 8000100:	2200      	movs	r2, #0
 8000102:	0843      	lsrs	r3, r0, #1
 8000104:	428b      	cmp	r3, r1
 8000106:	d374      	bcc.n	80001f2 <__udivsi3+0xf2>
 8000108:	0903      	lsrs	r3, r0, #4
 800010a:	428b      	cmp	r3, r1
 800010c:	d35f      	bcc.n	80001ce <__udivsi3+0xce>
 800010e:	0a03      	lsrs	r3, r0, #8
 8000110:	428b      	cmp	r3, r1
 8000112:	d344      	bcc.n	800019e <__udivsi3+0x9e>
 8000114:	0b03      	lsrs	r3, r0, #12
 8000116:	428b      	cmp	r3, r1
 8000118:	d328      	bcc.n	800016c <__udivsi3+0x6c>
 800011a:	0c03      	lsrs	r3, r0, #16
 800011c:	428b      	cmp	r3, r1
 800011e:	d30d      	bcc.n	800013c <__udivsi3+0x3c>
 8000120:	22ff      	movs	r2, #255	@ 0xff
 8000122:	0209      	lsls	r1, r1, #8
 8000124:	ba12      	rev	r2, r2
 8000126:	0c03      	lsrs	r3, r0, #16
 8000128:	428b      	cmp	r3, r1
 800012a:	d302      	bcc.n	8000132 <__udivsi3+0x32>
 800012c:	1212      	asrs	r2, r2, #8
 800012e:	0209      	lsls	r1, r1, #8
 8000130:	d065      	beq.n	80001fe <__udivsi3+0xfe>
 8000132:	0b03      	lsrs	r3, r0, #12
 8000134:	428b      	cmp	r3, r1
 8000136:	d319      	bcc.n	800016c <__udivsi3+0x6c>
 8000138:	e000      	b.n	800013c <__udivsi3+0x3c>
 800013a:	0a09      	lsrs	r1, r1, #8
 800013c:	0bc3      	lsrs	r3, r0, #15
 800013e:	428b      	cmp	r3, r1
 8000140:	d301      	bcc.n	8000146 <__udivsi3+0x46>
 8000142:	03cb      	lsls	r3, r1, #15
 8000144:	1ac0      	subs	r0, r0, r3
 8000146:	4152      	adcs	r2, r2
 8000148:	0b83      	lsrs	r3, r0, #14
 800014a:	428b      	cmp	r3, r1
 800014c:	d301      	bcc.n	8000152 <__udivsi3+0x52>
 800014e:	038b      	lsls	r3, r1, #14
 8000150:	1ac0      	subs	r0, r0, r3
 8000152:	4152      	adcs	r2, r2
 8000154:	0b43      	lsrs	r3, r0, #13
 8000156:	428b      	cmp	r3, r1
 8000158:	d301      	bcc.n	800015e <__udivsi3+0x5e>
 800015a:	034b      	lsls	r3, r1, #13
 800015c:	1ac0      	subs	r0, r0, r3
 800015e:	4152      	adcs	r2, r2
 8000160:	0b03      	lsrs	r3, r0, #12
 8000162:	428b      	cmp	r3, r1
 8000164:	d301      	bcc.n	800016a <__udivsi3+0x6a>
 8000166:	030b      	lsls	r3, r1, #12
 8000168:	1ac0      	subs	r0, r0, r3
 800016a:	4152      	adcs	r2, r2
 800016c:	0ac3      	lsrs	r3, r0, #11
 800016e:	428b      	cmp	r3, r1
 8000170:	d301      	bcc.n	8000176 <__udivsi3+0x76>
 8000172:	02cb      	lsls	r3, r1, #11
 8000174:	1ac0      	subs	r0, r0, r3
 8000176:	4152      	adcs	r2, r2
 8000178:	0a83      	lsrs	r3, r0, #10
 800017a:	428b      	cmp	r3, r1
 800017c:	d301      	bcc.n	8000182 <__udivsi3+0x82>
 800017e:	028b      	lsls	r3, r1, #10
 8000180:	1ac0      	subs	r0, r0, r3
 8000182:	4152      	adcs	r2, r2
 8000184:	0a43      	lsrs	r3, r0, #9
 8000186:	428b      	cmp	r3, r1
 8000188:	d301      	bcc.n	800018e <__udivsi3+0x8e>
 800018a:	024b      	lsls	r3, r1, #9
 800018c:	1ac0      	subs	r0, r0, r3
 800018e:	4152      	adcs	r2, r2
 8000190:	0a03      	lsrs	r3, r0, #8
 8000192:	428b      	cmp	r3, r1
 8000194:	d301      	bcc.n	800019a <__udivsi3+0x9a>
 8000196:	020b      	lsls	r3, r1, #8
 8000198:	1ac0      	subs	r0, r0, r3
 800019a:	4152      	adcs	r2, r2
 800019c:	d2cd      	bcs.n	800013a <__udivsi3+0x3a>
 800019e:	09c3      	lsrs	r3, r0, #7
 80001a0:	428b      	cmp	r3, r1
 80001a2:	d301      	bcc.n	80001a8 <__udivsi3+0xa8>
 80001a4:	01cb      	lsls	r3, r1, #7
 80001a6:	1ac0      	subs	r0, r0, r3
 80001a8:	4152      	adcs	r2, r2
 80001aa:	0983      	lsrs	r3, r0, #6
 80001ac:	428b      	cmp	r3, r1
 80001ae:	d301      	bcc.n	80001b4 <__udivsi3+0xb4>
 80001b0:	018b      	lsls	r3, r1, #6
 80001b2:	1ac0      	subs	r0, r0, r3
 80001b4:	4152      	adcs	r2, r2
 80001b6:	0943      	lsrs	r3, r0, #5
 80001b8:	428b      	cmp	r3, r1
 80001ba:	d301      	bcc.n	80001c0 <__udivsi3+0xc0>
 80001bc:	014b      	lsls	r3, r1, #5
 80001be:	1ac0      	subs	r0, r0, r3
 80001c0:	4152      	adcs	r2, r2
 80001c2:	0903      	lsrs	r3, r0, #4
 80001c4:	428b      	cmp	r3, r1
 80001c6:	d301      	bcc.n	80001cc <__udivsi3+0xcc>
 80001c8:	010b      	lsls	r3, r1, #4
 80001ca:	1ac0      	subs	r0, r0, r3
 80001cc:	4152      	adcs	r2, r2
 80001ce:	08c3      	lsrs	r3, r0, #3
 80001d0:	428b      	cmp	r3, r1
 80001d2:	d301      	bcc.n	80001d8 <__udivsi3+0xd8>
 80001d4:	00cb      	lsls	r3, r1, #3
 80001d6:	1ac0      	subs	r0, r0, r3
 80001d8:	4152      	adcs	r2, r2
 80001da:	0883      	lsrs	r3, r0, #2
 80001dc:	428b      	cmp	r3, r1
 80001de:	d301      	bcc.n	80001e4 <__udivsi3+0xe4>
 80001e0:	008b      	lsls	r3, r1, #2
 80001e2:	1ac0      	subs	r0, r0, r3
 80001e4:	4152      	adcs	r2, r2
 80001e6:	0843      	lsrs	r3, r0, #1
 80001e8:	428b      	cmp	r3, r1
 80001ea:	d301      	bcc.n	80001f0 <__udivsi3+0xf0>
 80001ec:	004b      	lsls	r3, r1, #1
 80001ee:	1ac0      	subs	r0, r0, r3
 80001f0:	4152      	adcs	r2, r2
 80001f2:	1a41      	subs	r1, r0, r1
 80001f4:	d200      	bcs.n	80001f8 <__udivsi3+0xf8>
 80001f6:	4601      	mov	r1, r0
 80001f8:	4152      	adcs	r2, r2
 80001fa:	4610      	mov	r0, r2
 80001fc:	4770      	bx	lr
 80001fe:	e7ff      	b.n	8000200 <__udivsi3+0x100>
 8000200:	b501      	push	{r0, lr}
 8000202:	2000      	movs	r0, #0
 8000204:	f000 f806 	bl	8000214 <__aeabi_idiv0>
 8000208:	bd02      	pop	{r1, pc}
 800020a:	46c0      	nop			@ (mov r8, r8)

0800020c <__aeabi_uidivmod>:
 800020c:	2900      	cmp	r1, #0
 800020e:	d0f7      	beq.n	8000200 <__udivsi3+0x100>
 8000210:	e776      	b.n	8000100 <__udivsi3>
 8000212:	4770      	bx	lr

08000214 <__aeabi_idiv0>:
 8000214:	4770      	bx	lr
 8000216:	46c0      	nop			@ (mov r8, r8)

08000218 <main>:
/**
  * @brief  The application entry point.
  * @retval int
  */
int main(void)
{
 8000218:	b580      	push	{r7, lr}
 800021a:	af00      	add	r7, sp, #0
  /* USER CODE END 1 */

  /* MCU Configuration--------------------------------------------------------*/

  /* Reset of all peripherals, Initializes the Flash interface and the Systick. */
  HAL_Init();
 800021c:	f000 fa22 	bl	8000664 <HAL_Init>
  /* USER CODE BEGIN Init */

  /* USER CODE END Init */

  /* Configure the system clock */
  SystemClock_Config();
 8000220:	f000 f80c 	bl	800023c <SystemClock_Config>
  /* USER CODE BEGIN SysInit */

  /* USER CODE END SysInit */

  /* Initialize all configured peripherals */
  MX_GPIO_Init();
 8000224:	f000 f8d4 	bl	80003d0 <MX_GPIO_Init>
  MX_TIM3_Init();
 8000228:	f000 f850 	bl	80002cc <MX_TIM3_Init>
  /* USER CODE BEGIN 2 */
  HAL_TIM_Base_Start_IT(&htim3);   // TIM3 interrupt başlat
 800022c:	4b02      	ldr	r3, [pc, #8]	@ (8000238 <main+0x20>)
 800022e:	0018      	movs	r0, r3
 8000230:	f001 fa4a 	bl	80016c8 <HAL_TIM_Base_Start_IT>

  /* USER CODE END 2 */

  /* Infinite loop */
  /* USER CODE BEGIN WHILE */
  while (1)
 8000234:	46c0      	nop			@ (mov r8, r8)
 8000236:	e7fd      	b.n	8000234 <main+0x1c>
 8000238:	20000028 	.word	0x20000028

0800023c <SystemClock_Config>:
/**
  * @brief System Clock Configuration
  * @retval None
  */
void SystemClock_Config(void)
{
 800023c:	b590      	push	{r4, r7, lr}
 800023e:	b093      	sub	sp, #76	@ 0x4c
 8000240:	af00      	add	r7, sp, #0
  RCC_OscInitTypeDef RCC_OscInitStruct = {0};
 8000242:	2414      	movs	r4, #20
 8000244:	193b      	adds	r3, r7, r4
 8000246:	0018      	movs	r0, r3
 8000248:	2334      	movs	r3, #52	@ 0x34
 800024a:	001a      	movs	r2, r3
 800024c:	2100      	movs	r1, #0
 800024e:	f002 fa1b 	bl	8002688 <memset>
  RCC_ClkInitTypeDef RCC_ClkInitStruct = {0};
 8000252:	1d3b      	adds	r3, r7, #4
 8000254:	0018      	movs	r0, r3
 8000256:	2310      	movs	r3, #16
 8000258:	001a      	movs	r2, r3
 800025a:	2100      	movs	r1, #0
 800025c:	f002 fa14 	bl	8002688 <memset>

  /** Configure the main internal regulator output voltage
  */
  HAL_PWREx_ControlVoltageScaling(PWR_REGULATOR_VOLTAGE_SCALE1);
 8000260:	2380      	movs	r3, #128	@ 0x80
 8000262:	009b      	lsls	r3, r3, #2
 8000264:	0018      	movs	r0, r3
 8000266:	f000 fcfd 	bl	8000c64 <HAL_PWREx_ControlVoltageScaling>

  /** Initializes the RCC Oscillators according to the specified parameters
  * in the RCC_OscInitTypeDef structure.
  */
  RCC_OscInitStruct.OscillatorType = RCC_OSCILLATORTYPE_HSI;
 800026a:	193b      	adds	r3, r7, r4
 800026c:	2202      	movs	r2, #2
 800026e:	601a      	str	r2, [r3, #0]
  RCC_OscInitStruct.HSIState = RCC_HSI_ON;
 8000270:	193b      	adds	r3, r7, r4
 8000272:	2280      	movs	r2, #128	@ 0x80
 8000274:	0052      	lsls	r2, r2, #1
 8000276:	60da      	str	r2, [r3, #12]
  RCC_OscInitStruct.HSIDiv = RCC_HSI_DIV1;
 8000278:	193b      	adds	r3, r7, r4
 800027a:	2200      	movs	r2, #0
 800027c:	611a      	str	r2, [r3, #16]
  RCC_OscInitStruct.HSICalibrationValue = RCC_HSICALIBRATION_DEFAULT;
 800027e:	193b      	adds	r3, r7, r4
 8000280:	2240      	movs	r2, #64	@ 0x40
 8000282:	615a      	str	r2, [r3, #20]
  RCC_OscInitStruct.PLL.PLLState = RCC_PLL_NONE;
 8000284:	193b      	adds	r3, r7, r4
 8000286:	2200      	movs	r2, #0
 8000288:	61da      	str	r2, [r3, #28]
  if (HAL_RCC_OscConfig(&RCC_OscInitStruct) != HAL_OK)
 800028a:	193b      	adds	r3, r7, r4
 800028c:	0018      	movs	r0, r3
 800028e:	f000 fd29 	bl	8000ce4 <HAL_RCC_OscConfig>
 8000292:	1e03      	subs	r3, r0, #0
 8000294:	d001      	beq.n	800029a <SystemClock_Config+0x5e>
  {
    Error_Handler();
 8000296:	f000 f8fb 	bl	8000490 <Error_Handler>
  }

  /** Initializes the CPU, AHB and APB buses clocks
  */
  RCC_ClkInitStruct.ClockType = RCC_CLOCKTYPE_HCLK|RCC_CLOCKTYPE_SYSCLK
 800029a:	1d3b      	adds	r3, r7, #4
 800029c:	2207      	movs	r2, #7
 800029e:	601a      	str	r2, [r3, #0]
                              |RCC_CLOCKTYPE_PCLK1;
  RCC_ClkInitStruct.SYSCLKSource = RCC_SYSCLKSOURCE_HSI;
 80002a0:	1d3b      	adds	r3, r7, #4
 80002a2:	2200      	movs	r2, #0
 80002a4:	605a      	str	r2, [r3, #4]
  RCC_ClkInitStruct.AHBCLKDivider = RCC_SYSCLK_DIV1;
 80002a6:	1d3b      	adds	r3, r7, #4
 80002a8:	2200      	movs	r2, #0
 80002aa:	609a      	str	r2, [r3, #8]
  RCC_ClkInitStruct.APB1CLKDivider = RCC_HCLK_DIV1;
 80002ac:	1d3b      	adds	r3, r7, #4
 80002ae:	2200      	movs	r2, #0
 80002b0:	60da      	str	r2, [r3, #12]

  if (HAL_RCC_ClockConfig(&RCC_ClkInitStruct, FLASH_LATENCY_0) != HAL_OK)
 80002b2:	1d3b      	adds	r3, r7, #4
 80002b4:	2100      	movs	r1, #0
 80002b6:	0018      	movs	r0, r3
 80002b8:	f001 f824 	bl	8001304 <HAL_RCC_ClockConfig>
 80002bc:	1e03      	subs	r3, r0, #0
 80002be:	d001      	beq.n	80002c4 <SystemClock_Config+0x88>
  {
    Error_Handler();
 80002c0:	f000 f8e6 	bl	8000490 <Error_Handler>
  }
}
 80002c4:	46c0      	nop			@ (mov r8, r8)
 80002c6:	46bd      	mov	sp, r7
 80002c8:	b013      	add	sp, #76	@ 0x4c
 80002ca:	bd90      	pop	{r4, r7, pc}

080002cc <MX_TIM3_Init>:
  * @brief TIM3 Initialization Function
  * @param None
  * @retval None
  */
static void MX_TIM3_Init(void)
{
 80002cc:	b580      	push	{r7, lr}
 80002ce:	b08e      	sub	sp, #56	@ 0x38
 80002d0:	af00      	add	r7, sp, #0

  /* USER CODE BEGIN TIM3_Init 0 */

  /* USER CODE END TIM3_Init 0 */

  TIM_ClockConfigTypeDef sClockSourceConfig = {0};
 80002d2:	2328      	movs	r3, #40	@ 0x28
 80002d4:	18fb      	adds	r3, r7, r3
 80002d6:	0018      	movs	r0, r3
 80002d8:	2310      	movs	r3, #16
 80002da:	001a      	movs	r2, r3
 80002dc:	2100      	movs	r1, #0
 80002de:	f002 f9d3 	bl	8002688 <memset>
  TIM_MasterConfigTypeDef sMasterConfig = {0};
 80002e2:	231c      	movs	r3, #28
 80002e4:	18fb      	adds	r3, r7, r3
 80002e6:	0018      	movs	r0, r3
 80002e8:	230c      	movs	r3, #12
 80002ea:	001a      	movs	r2, r3
 80002ec:	2100      	movs	r1, #0
 80002ee:	f002 f9cb 	bl	8002688 <memset>
  TIM_OC_InitTypeDef sConfigOC = {0};
 80002f2:	003b      	movs	r3, r7
 80002f4:	0018      	movs	r0, r3
 80002f6:	231c      	movs	r3, #28
 80002f8:	001a      	movs	r2, r3
 80002fa:	2100      	movs	r1, #0
 80002fc:	f002 f9c4 	bl	8002688 <memset>

  /* USER CODE BEGIN TIM3_Init 1 */

  /* USER CODE END TIM3_Init 1 */
  htim3.Instance = TIM3;
 8000300:	4b2f      	ldr	r3, [pc, #188]	@ (80003c0 <MX_TIM3_Init+0xf4>)
 8000302:	4a30      	ldr	r2, [pc, #192]	@ (80003c4 <MX_TIM3_Init+0xf8>)
 8000304:	601a      	str	r2, [r3, #0]
  htim3.Init.Prescaler = 15999;
 8000306:	4b2e      	ldr	r3, [pc, #184]	@ (80003c0 <MX_TIM3_Init+0xf4>)
 8000308:	4a2f      	ldr	r2, [pc, #188]	@ (80003c8 <MX_TIM3_Init+0xfc>)
 800030a:	605a      	str	r2, [r3, #4]
  htim3.Init.CounterMode = TIM_COUNTERMODE_UP;
 800030c:	4b2c      	ldr	r3, [pc, #176]	@ (80003c0 <MX_TIM3_Init+0xf4>)
 800030e:	2200      	movs	r2, #0
 8000310:	609a      	str	r2, [r3, #8]
  htim3.Init.Period = 999;
 8000312:	4b2b      	ldr	r3, [pc, #172]	@ (80003c0 <MX_TIM3_Init+0xf4>)
 8000314:	4a2d      	ldr	r2, [pc, #180]	@ (80003cc <MX_TIM3_Init+0x100>)
 8000316:	60da      	str	r2, [r3, #12]
  htim3.Init.ClockDivision = TIM_CLOCKDIVISION_DIV1;
 8000318:	4b29      	ldr	r3, [pc, #164]	@ (80003c0 <MX_TIM3_Init+0xf4>)
 800031a:	2200      	movs	r2, #0
 800031c:	611a      	str	r2, [r3, #16]
  htim3.Init.AutoReloadPreload = TIM_AUTORELOAD_PRELOAD_DISABLE;
 800031e:	4b28      	ldr	r3, [pc, #160]	@ (80003c0 <MX_TIM3_Init+0xf4>)
 8000320:	2200      	movs	r2, #0
 8000322:	619a      	str	r2, [r3, #24]
  if (HAL_TIM_Base_Init(&htim3) != HAL_OK)
 8000324:	4b26      	ldr	r3, [pc, #152]	@ (80003c0 <MX_TIM3_Init+0xf4>)
 8000326:	0018      	movs	r0, r3
 8000328:	f001 f976 	bl	8001618 <HAL_TIM_Base_Init>
 800032c:	1e03      	subs	r3, r0, #0
 800032e:	d001      	beq.n	8000334 <MX_TIM3_Init+0x68>
  {
    Error_Handler();
 8000330:	f000 f8ae 	bl	8000490 <Error_Handler>
  }
  sClockSourceConfig.ClockSource = TIM_CLOCKSOURCE_INTERNAL;
 8000334:	2128      	movs	r1, #40	@ 0x28
 8000336:	187b      	adds	r3, r7, r1
 8000338:	2280      	movs	r2, #128	@ 0x80
 800033a:	0152      	lsls	r2, r2, #5
 800033c:	601a      	str	r2, [r3, #0]
  if (HAL_TIM_ConfigClockSource(&htim3, &sClockSourceConfig) != HAL_OK)
 800033e:	187a      	adds	r2, r7, r1
 8000340:	4b1f      	ldr	r3, [pc, #124]	@ (80003c0 <MX_TIM3_Init+0xf4>)
 8000342:	0011      	movs	r1, r2
 8000344:	0018      	movs	r0, r3
 8000346:	f001 fc75 	bl	8001c34 <HAL_TIM_ConfigClockSource>
 800034a:	1e03      	subs	r3, r0, #0
 800034c:	d001      	beq.n	8000352 <MX_TIM3_Init+0x86>
  {
    Error_Handler();
 800034e:	f000 f89f 	bl	8000490 <Error_Handler>
  }
  if (HAL_TIM_PWM_Init(&htim3) != HAL_OK)
 8000352:	4b1b      	ldr	r3, [pc, #108]	@ (80003c0 <MX_TIM3_Init+0xf4>)
 8000354:	0018      	movs	r0, r3
 8000356:	f001 fa05 	bl	8001764 <HAL_TIM_PWM_Init>
 800035a:	1e03      	subs	r3, r0, #0
 800035c:	d001      	beq.n	8000362 <MX_TIM3_Init+0x96>
  {
    Error_Handler();
 800035e:	f000 f897 	bl	8000490 <Error_Handler>
  }
  sMasterConfig.MasterOutputTrigger = TIM_TRGO_RESET;
 8000362:	211c      	movs	r1, #28
 8000364:	187b      	adds	r3, r7, r1
 8000366:	2200      	movs	r2, #0
 8000368:	601a      	str	r2, [r3, #0]
  sMasterConfig.MasterSlaveMode = TIM_MASTERSLAVEMODE_DISABLE;
 800036a:	187b      	adds	r3, r7, r1
 800036c:	2200      	movs	r2, #0
 800036e:	609a      	str	r2, [r3, #8]
  if (HAL_TIMEx_MasterConfigSynchronization(&htim3, &sMasterConfig) != HAL_OK)
 8000370:	187a      	adds	r2, r7, r1
 8000372:	4b13      	ldr	r3, [pc, #76]	@ (80003c0 <MX_TIM3_Init+0xf4>)
 8000374:	0011      	movs	r1, r2
 8000376:	0018      	movs	r0, r3
 8000378:	f002 f90c 	bl	8002594 <HAL_TIMEx_MasterConfigSynchronization>
 800037c:	1e03      	subs	r3, r0, #0
 800037e:	d001      	beq.n	8000384 <MX_TIM3_Init+0xb8>
  {
    Error_Handler();
 8000380:	f000 f886 	bl	8000490 <Error_Handler>
  }
  sConfigOC.OCMode = TIM_OCMODE_PWM1;
 8000384:	003b      	movs	r3, r7
 8000386:	2260      	movs	r2, #96	@ 0x60
 8000388:	601a      	str	r2, [r3, #0]
  sConfigOC.Pulse = 0;
 800038a:	003b      	movs	r3, r7
 800038c:	2200      	movs	r2, #0
 800038e:	605a      	str	r2, [r3, #4]
  sConfigOC.OCPolarity = TIM_OCPOLARITY_HIGH;
 8000390:	003b      	movs	r3, r7
 8000392:	2200      	movs	r2, #0
 8000394:	609a      	str	r2, [r3, #8]
  sConfigOC.OCFastMode = TIM_OCFAST_DISABLE;
 8000396:	003b      	movs	r3, r7
 8000398:	2200      	movs	r2, #0
 800039a:	611a      	str	r2, [r3, #16]
  if (HAL_TIM_PWM_ConfigChannel(&htim3, &sConfigOC, TIM_CHANNEL_1) != HAL_OK)
 800039c:	0039      	movs	r1, r7
 800039e:	4b08      	ldr	r3, [pc, #32]	@ (80003c0 <MX_TIM3_Init+0xf4>)
 80003a0:	2200      	movs	r2, #0
 80003a2:	0018      	movs	r0, r3
 80003a4:	f001 fb46 	bl	8001a34 <HAL_TIM_PWM_ConfigChannel>
 80003a8:	1e03      	subs	r3, r0, #0
 80003aa:	d001      	beq.n	80003b0 <MX_TIM3_Init+0xe4>
  {
    Error_Handler();
 80003ac:	f000 f870 	bl	8000490 <Error_Handler>
  }
  /* USER CODE BEGIN TIM3_Init 2 */

  /* USER CODE END TIM3_Init 2 */
  HAL_TIM_MspPostInit(&htim3);
 80003b0:	4b03      	ldr	r3, [pc, #12]	@ (80003c0 <MX_TIM3_Init+0xf4>)
 80003b2:	0018      	movs	r0, r3
 80003b4:	f000 f8bc 	bl	8000530 <HAL_TIM_MspPostInit>

}
 80003b8:	46c0      	nop			@ (mov r8, r8)
 80003ba:	46bd      	mov	sp, r7
 80003bc:	b00e      	add	sp, #56	@ 0x38
 80003be:	bd80      	pop	{r7, pc}
 80003c0:	20000028 	.word	0x20000028
 80003c4:	40000400 	.word	0x40000400
 80003c8:	00003e7f 	.word	0x00003e7f
 80003cc:	000003e7 	.word	0x000003e7

080003d0 <MX_GPIO_Init>:
  * @brief GPIO Initialization Function
  * @param None
  * @retval None
  */
static void MX_GPIO_Init(void)
{
 80003d0:	b590      	push	{r4, r7, lr}
 80003d2:	b089      	sub	sp, #36	@ 0x24
 80003d4:	af00      	add	r7, sp, #0
  GPIO_InitTypeDef GPIO_InitStruct = {0};
 80003d6:	240c      	movs	r4, #12
 80003d8:	193b      	adds	r3, r7, r4
 80003da:	0018      	movs	r0, r3
 80003dc:	2314      	movs	r3, #20
 80003de:	001a      	movs	r2, r3
 80003e0:	2100      	movs	r1, #0
 80003e2:	f002 f951 	bl	8002688 <memset>
  /* USER CODE BEGIN MX_GPIO_Init_1 */

  /* USER CODE END MX_GPIO_Init_1 */

  /* GPIO Ports Clock Enable */
  __HAL_RCC_GPIOA_CLK_ENABLE();
 80003e6:	4b28      	ldr	r3, [pc, #160]	@ (8000488 <MX_GPIO_Init+0xb8>)
 80003e8:	6b5a      	ldr	r2, [r3, #52]	@ 0x34
 80003ea:	4b27      	ldr	r3, [pc, #156]	@ (8000488 <MX_GPIO_Init+0xb8>)
 80003ec:	2101      	movs	r1, #1
 80003ee:	430a      	orrs	r2, r1
 80003f0:	635a      	str	r2, [r3, #52]	@ 0x34
 80003f2:	4b25      	ldr	r3, [pc, #148]	@ (8000488 <MX_GPIO_Init+0xb8>)
 80003f4:	6b5b      	ldr	r3, [r3, #52]	@ 0x34
 80003f6:	2201      	movs	r2, #1
 80003f8:	4013      	ands	r3, r2
 80003fa:	60bb      	str	r3, [r7, #8]
 80003fc:	68bb      	ldr	r3, [r7, #8]
  __HAL_RCC_GPIOB_CLK_ENABLE();
 80003fe:	4b22      	ldr	r3, [pc, #136]	@ (8000488 <MX_GPIO_Init+0xb8>)
 8000400:	6b5a      	ldr	r2, [r3, #52]	@ 0x34
 8000402:	4b21      	ldr	r3, [pc, #132]	@ (8000488 <MX_GPIO_Init+0xb8>)
 8000404:	2102      	movs	r1, #2
 8000406:	430a      	orrs	r2, r1
 8000408:	635a      	str	r2, [r3, #52]	@ 0x34
 800040a:	4b1f      	ldr	r3, [pc, #124]	@ (8000488 <MX_GPIO_Init+0xb8>)
 800040c:	6b5b      	ldr	r3, [r3, #52]	@ 0x34
 800040e:	2202      	movs	r2, #2
 8000410:	4013      	ands	r3, r2
 8000412:	607b      	str	r3, [r7, #4]
 8000414:	687b      	ldr	r3, [r7, #4]

  /*Configure GPIO pin Output Level */
  HAL_GPIO_WritePin(GPIOA, GPIO_PIN_11|GPIO_PIN_12|GPIO_PIN_13|GPIO_PIN_14, GPIO_PIN_RESET);
 8000416:	23f0      	movs	r3, #240	@ 0xf0
 8000418:	01d9      	lsls	r1, r3, #7
 800041a:	23a0      	movs	r3, #160	@ 0xa0
 800041c:	05db      	lsls	r3, r3, #23
 800041e:	2200      	movs	r2, #0
 8000420:	0018      	movs	r0, r3
 8000422:	f000 fbe7 	bl	8000bf4 <HAL_GPIO_WritePin>

  /*Configure GPIO pin Output Level */
  HAL_GPIO_WritePin(GPIOB, GPIO_PIN_3, GPIO_PIN_RESET);
 8000426:	4b19      	ldr	r3, [pc, #100]	@ (800048c <MX_GPIO_Init+0xbc>)
 8000428:	2200      	movs	r2, #0
 800042a:	2108      	movs	r1, #8
 800042c:	0018      	movs	r0, r3
 800042e:	f000 fbe1 	bl	8000bf4 <HAL_GPIO_WritePin>

  /*Configure GPIO pins : PA11 PA12 PA13 PA14 */
  GPIO_InitStruct.Pin = GPIO_PIN_11|GPIO_PIN_12|GPIO_PIN_13|GPIO_PIN_14;
 8000432:	193b      	adds	r3, r7, r4
 8000434:	22f0      	movs	r2, #240	@ 0xf0
 8000436:	01d2      	lsls	r2, r2, #7
 8000438:	601a      	str	r2, [r3, #0]
  GPIO_InitStruct.Mode = GPIO_MODE_OUTPUT_PP;
 800043a:	193b      	adds	r3, r7, r4
 800043c:	2201      	movs	r2, #1
 800043e:	605a      	str	r2, [r3, #4]
  GPIO_InitStruct.Pull = GPIO_NOPULL;
 8000440:	193b      	adds	r3, r7, r4
 8000442:	2200      	movs	r2, #0
 8000444:	609a      	str	r2, [r3, #8]
  GPIO_InitStruct.Speed = GPIO_SPEED_FREQ_LOW;
 8000446:	193b      	adds	r3, r7, r4
 8000448:	2200      	movs	r2, #0
 800044a:	60da      	str	r2, [r3, #12]
  HAL_GPIO_Init(GPIOA, &GPIO_InitStruct);
 800044c:	193a      	adds	r2, r7, r4
 800044e:	23a0      	movs	r3, #160	@ 0xa0
 8000450:	05db      	lsls	r3, r3, #23
 8000452:	0011      	movs	r1, r2
 8000454:	0018      	movs	r0, r3
 8000456:	f000 fa69 	bl	800092c <HAL_GPIO_Init>

  /*Configure GPIO pin : PB3 */
  GPIO_InitStruct.Pin = GPIO_PIN_3;
 800045a:	0021      	movs	r1, r4
 800045c:	187b      	adds	r3, r7, r1
 800045e:	2208      	movs	r2, #8
 8000460:	601a      	str	r2, [r3, #0]
  GPIO_InitStruct.Mode = GPIO_MODE_OUTPUT_PP;
 8000462:	187b      	adds	r3, r7, r1
 8000464:	2201      	movs	r2, #1
 8000466:	605a      	str	r2, [r3, #4]
  GPIO_InitStruct.Pull = GPIO_NOPULL;
 8000468:	187b      	adds	r3, r7, r1
 800046a:	2200      	movs	r2, #0
 800046c:	609a      	str	r2, [r3, #8]
  GPIO_InitStruct.Speed = GPIO_SPEED_FREQ_LOW;
 800046e:	187b      	adds	r3, r7, r1
 8000470:	2200      	movs	r2, #0
 8000472:	60da      	str	r2, [r3, #12]
  HAL_GPIO_Init(GPIOB, &GPIO_InitStruct);
 8000474:	187b      	adds	r3, r7, r1
 8000476:	4a05      	ldr	r2, [pc, #20]	@ (800048c <MX_GPIO_Init+0xbc>)
 8000478:	0019      	movs	r1, r3
 800047a:	0010      	movs	r0, r2
 800047c:	f000 fa56 	bl	800092c <HAL_GPIO_Init>

  /* USER CODE BEGIN MX_GPIO_Init_2 */

  /* USER CODE END MX_GPIO_Init_2 */
}
 8000480:	46c0      	nop			@ (mov r8, r8)
 8000482:	46bd      	mov	sp, r7
 8000484:	b009      	add	sp, #36	@ 0x24
 8000486:	bd90      	pop	{r4, r7, pc}
 8000488:	40021000 	.word	0x40021000
 800048c:	50000400 	.word	0x50000400

08000490 <Error_Handler>:
/**
  * @brief  This function is executed in case of error occurrence.
  * @retval None
  */
void Error_Handler(void)
{
 8000490:	b580      	push	{r7, lr}
 8000492:	af00      	add	r7, sp, #0
  \details Disables IRQ interrupts by setting the I-bit in the CPSR.
           Can only be executed in Privileged modes.
 */
__STATIC_FORCEINLINE void __disable_irq(void)
{
  __ASM volatile ("cpsid i" : : : "memory");
 8000494:	b672      	cpsid	i
}
 8000496:	46c0      	nop			@ (mov r8, r8)
  /* USER CODE BEGIN Error_Handler_Debug */
  /* User can add his own implementation to report the HAL error return state */
  __disable_irq();
  while (1)
 8000498:	46c0      	nop			@ (mov r8, r8)
 800049a:	e7fd      	b.n	8000498 <Error_Handler+0x8>

0800049c <HAL_MspInit>:
void HAL_TIM_MspPostInit(TIM_HandleTypeDef *htim);
                    /**
  * Initializes the Global MSP.
  */
void HAL_MspInit(void)
{
 800049c:	b580      	push	{r7, lr}
 800049e:	b082      	sub	sp, #8
 80004a0:	af00      	add	r7, sp, #0

  /* USER CODE BEGIN MspInit 0 */

  /* USER CODE END MspInit 0 */

  __HAL_RCC_SYSCFG_CLK_ENABLE();
 80004a2:	4b0f      	ldr	r3, [pc, #60]	@ (80004e0 <HAL_MspInit+0x44>)
 80004a4:	6c1a      	ldr	r2, [r3, #64]	@ 0x40
 80004a6:	4b0e      	ldr	r3, [pc, #56]	@ (80004e0 <HAL_MspInit+0x44>)
 80004a8:	2101      	movs	r1, #1
 80004aa:	430a      	orrs	r2, r1
 80004ac:	641a      	str	r2, [r3, #64]	@ 0x40
 80004ae:	4b0c      	ldr	r3, [pc, #48]	@ (80004e0 <HAL_MspInit+0x44>)
 80004b0:	6c1b      	ldr	r3, [r3, #64]	@ 0x40
 80004b2:	2201      	movs	r2, #1
 80004b4:	4013      	ands	r3, r2
 80004b6:	607b      	str	r3, [r7, #4]
 80004b8:	687b      	ldr	r3, [r7, #4]
  __HAL_RCC_PWR_CLK_ENABLE();
 80004ba:	4b09      	ldr	r3, [pc, #36]	@ (80004e0 <HAL_MspInit+0x44>)
 80004bc:	6bda      	ldr	r2, [r3, #60]	@ 0x3c
 80004be:	4b08      	ldr	r3, [pc, #32]	@ (80004e0 <HAL_MspInit+0x44>)
 80004c0:	2180      	movs	r1, #128	@ 0x80
 80004c2:	0549      	lsls	r1, r1, #21
 80004c4:	430a      	orrs	r2, r1
 80004c6:	63da      	str	r2, [r3, #60]	@ 0x3c
 80004c8:	4b05      	ldr	r3, [pc, #20]	@ (80004e0 <HAL_MspInit+0x44>)
 80004ca:	6bda      	ldr	r2, [r3, #60]	@ 0x3c
 80004cc:	2380      	movs	r3, #128	@ 0x80
 80004ce:	055b      	lsls	r3, r3, #21
 80004d0:	4013      	ands	r3, r2
 80004d2:	603b      	str	r3, [r7, #0]
 80004d4:	683b      	ldr	r3, [r7, #0]
  /* System interrupt init*/

  /* USER CODE BEGIN MspInit 1 */

  /* USER CODE END MspInit 1 */
}
 80004d6:	46c0      	nop			@ (mov r8, r8)
 80004d8:	46bd      	mov	sp, r7
 80004da:	b002      	add	sp, #8
 80004dc:	bd80      	pop	{r7, pc}
 80004de:	46c0      	nop			@ (mov r8, r8)
 80004e0:	40021000 	.word	0x40021000

080004e4 <HAL_TIM_Base_MspInit>:
  * This function configures the hardware resources used in this example
  * @param htim_base: TIM_Base handle pointer
  * @retval None
  */
void HAL_TIM_Base_MspInit(TIM_HandleTypeDef* htim_base)
{
 80004e4:	b580      	push	{r7, lr}
 80004e6:	b084      	sub	sp, #16
 80004e8:	af00      	add	r7, sp, #0
 80004ea:	6078      	str	r0, [r7, #4]
  if(htim_base->Instance==TIM3)
 80004ec:	687b      	ldr	r3, [r7, #4]
 80004ee:	681b      	ldr	r3, [r3, #0]
 80004f0:	4a0d      	ldr	r2, [pc, #52]	@ (8000528 <HAL_TIM_Base_MspInit+0x44>)
 80004f2:	4293      	cmp	r3, r2
 80004f4:	d113      	bne.n	800051e <HAL_TIM_Base_MspInit+0x3a>
  {
    /* USER CODE BEGIN TIM3_MspInit 0 */

    /* USER CODE END TIM3_MspInit 0 */
    /* Peripheral clock enable */
    __HAL_RCC_TIM3_CLK_ENABLE();
 80004f6:	4b0d      	ldr	r3, [pc, #52]	@ (800052c <HAL_TIM_Base_MspInit+0x48>)
 80004f8:	6bda      	ldr	r2, [r3, #60]	@ 0x3c
 80004fa:	4b0c      	ldr	r3, [pc, #48]	@ (800052c <HAL_TIM_Base_MspInit+0x48>)
 80004fc:	2102      	movs	r1, #2
 80004fe:	430a      	orrs	r2, r1
 8000500:	63da      	str	r2, [r3, #60]	@ 0x3c
 8000502:	4b0a      	ldr	r3, [pc, #40]	@ (800052c <HAL_TIM_Base_MspInit+0x48>)
 8000504:	6bdb      	ldr	r3, [r3, #60]	@ 0x3c
 8000506:	2202      	movs	r2, #2
 8000508:	4013      	ands	r3, r2
 800050a:	60fb      	str	r3, [r7, #12]
 800050c:	68fb      	ldr	r3, [r7, #12]
    /* TIM3 interrupt Init */
    HAL_NVIC_SetPriority(TIM3_IRQn, 0, 0);
 800050e:	2200      	movs	r2, #0
 8000510:	2100      	movs	r1, #0
 8000512:	2010      	movs	r0, #16
 8000514:	f000 f9d8 	bl	80008c8 <HAL_NVIC_SetPriority>
    HAL_NVIC_EnableIRQ(TIM3_IRQn);
 8000518:	2010      	movs	r0, #16
 800051a:	f000 f9ea 	bl	80008f2 <HAL_NVIC_EnableIRQ>

    /* USER CODE END TIM3_MspInit 1 */

  }

}
 800051e:	46c0      	nop			@ (mov r8, r8)
 8000520:	46bd      	mov	sp, r7
 8000522:	b004      	add	sp, #16
 8000524:	bd80      	pop	{r7, pc}
 8000526:	46c0      	nop			@ (mov r8, r8)
 8000528:	40000400 	.word	0x40000400
 800052c:	40021000 	.word	0x40021000

08000530 <HAL_TIM_MspPostInit>:

void HAL_TIM_MspPostInit(TIM_HandleTypeDef* htim)
{
 8000530:	b590      	push	{r4, r7, lr}
 8000532:	b089      	sub	sp, #36	@ 0x24
 8000534:	af00      	add	r7, sp, #0
 8000536:	6078      	str	r0, [r7, #4]
  GPIO_InitTypeDef GPIO_InitStruct = {0};
 8000538:	240c      	movs	r4, #12
 800053a:	193b      	adds	r3, r7, r4
 800053c:	0018      	movs	r0, r3
 800053e:	2314      	movs	r3, #20
 8000540:	001a      	movs	r2, r3
 8000542:	2100      	movs	r1, #0
 8000544:	f002 f8a0 	bl	8002688 <memset>
  if(htim->Instance==TIM3)
 8000548:	687b      	ldr	r3, [r7, #4]
 800054a:	681b      	ldr	r3, [r3, #0]
 800054c:	4a14      	ldr	r2, [pc, #80]	@ (80005a0 <HAL_TIM_MspPostInit+0x70>)
 800054e:	4293      	cmp	r3, r2
 8000550:	d122      	bne.n	8000598 <HAL_TIM_MspPostInit+0x68>
  {
    /* USER CODE BEGIN TIM3_MspPostInit 0 */

    /* USER CODE END TIM3_MspPostInit 0 */

    __HAL_RCC_GPIOA_CLK_ENABLE();
 8000552:	4b14      	ldr	r3, [pc, #80]	@ (80005a4 <HAL_TIM_MspPostInit+0x74>)
 8000554:	6b5a      	ldr	r2, [r3, #52]	@ 0x34
 8000556:	4b13      	ldr	r3, [pc, #76]	@ (80005a4 <HAL_TIM_MspPostInit+0x74>)
 8000558:	2101      	movs	r1, #1
 800055a:	430a      	orrs	r2, r1
 800055c:	635a      	str	r2, [r3, #52]	@ 0x34
 800055e:	4b11      	ldr	r3, [pc, #68]	@ (80005a4 <HAL_TIM_MspPostInit+0x74>)
 8000560:	6b5b      	ldr	r3, [r3, #52]	@ 0x34
 8000562:	2201      	movs	r2, #1
 8000564:	4013      	ands	r3, r2
 8000566:	60bb      	str	r3, [r7, #8]
 8000568:	68bb      	ldr	r3, [r7, #8]
    /**TIM3 GPIO Configuration
    PA6     ------> TIM3_CH1
    */
    GPIO_InitStruct.Pin = GPIO_PIN_6;
 800056a:	0021      	movs	r1, r4
 800056c:	187b      	adds	r3, r7, r1
 800056e:	2240      	movs	r2, #64	@ 0x40
 8000570:	601a      	str	r2, [r3, #0]
    GPIO_InitStruct.Mode = GPIO_MODE_AF_PP;
 8000572:	187b      	adds	r3, r7, r1
 8000574:	2202      	movs	r2, #2
 8000576:	605a      	str	r2, [r3, #4]
    GPIO_InitStruct.Pull = GPIO_NOPULL;
 8000578:	187b      	adds	r3, r7, r1
 800057a:	2200      	movs	r2, #0
 800057c:	609a      	str	r2, [r3, #8]
    GPIO_InitStruct.Speed = GPIO_SPEED_FREQ_LOW;
 800057e:	187b      	adds	r3, r7, r1
 8000580:	2200      	movs	r2, #0
 8000582:	60da      	str	r2, [r3, #12]
    GPIO_InitStruct.Alternate = GPIO_AF1_TIM3;
 8000584:	187b      	adds	r3, r7, r1
 8000586:	2201      	movs	r2, #1
 8000588:	611a      	str	r2, [r3, #16]
    HAL_GPIO_Init(GPIOA, &GPIO_InitStruct);
 800058a:	187a      	adds	r2, r7, r1
 800058c:	23a0      	movs	r3, #160	@ 0xa0
 800058e:	05db      	lsls	r3, r3, #23
 8000590:	0011      	movs	r1, r2
 8000592:	0018      	movs	r0, r3
 8000594:	f000 f9ca 	bl	800092c <HAL_GPIO_Init>
    /* USER CODE BEGIN TIM3_MspPostInit 1 */

    /* USER CODE END TIM3_MspPostInit 1 */
  }

}
 8000598:	46c0      	nop			@ (mov r8, r8)
 800059a:	46bd      	mov	sp, r7
 800059c:	b009      	add	sp, #36	@ 0x24
 800059e:	bd90      	pop	{r4, r7, pc}
 80005a0:	40000400 	.word	0x40000400
 80005a4:	40021000 	.word	0x40021000

080005a8 <NMI_Handler>:
/******************************************************************************/
/**
  * @brief This function handles Non maskable interrupt.
  */
void NMI_Handler(void)
{
 80005a8:	b580      	push	{r7, lr}
 80005aa:	af00      	add	r7, sp, #0
  /* USER CODE BEGIN NonMaskableInt_IRQn 0 */

  /* USER CODE END NonMaskableInt_IRQn 0 */
  /* USER CODE BEGIN NonMaskableInt_IRQn 1 */
   while (1)
 80005ac:	46c0      	nop			@ (mov r8, r8)
 80005ae:	e7fd      	b.n	80005ac <NMI_Handler+0x4>

080005b0 <HardFault_Handler>:

/**
  * @brief This function handles Hard fault interrupt.
  */
void HardFault_Handler(void)
{
 80005b0:	b580      	push	{r7, lr}
 80005b2:	af00      	add	r7, sp, #0
  /* USER CODE BEGIN HardFault_IRQn 0 */

  /* USER CODE END HardFault_IRQn 0 */
  while (1)
 80005b4:	46c0      	nop			@ (mov r8, r8)
 80005b6:	e7fd      	b.n	80005b4 <HardFault_Handler+0x4>

080005b8 <SVC_Handler>:

/**
  * @brief This function handles System service call via SWI instruction.
  */
void SVC_Handler(void)
{
 80005b8:	b580      	push	{r7, lr}
 80005ba:	af00      	add	r7, sp, #0

  /* USER CODE END SVC_IRQn 0 */
  /* USER CODE BEGIN SVC_IRQn 1 */

  /* USER CODE END SVC_IRQn 1 */
}
 80005bc:	46c0      	nop			@ (mov r8, r8)
 80005be:	46bd      	mov	sp, r7
 80005c0:	bd80      	pop	{r7, pc}

080005c2 <PendSV_Handler>:

/**
  * @brief This function handles Pendable request for system service.
  */
void PendSV_Handler(void)
{
 80005c2:	b580      	push	{r7, lr}
 80005c4:	af00      	add	r7, sp, #0

  /* USER CODE END PendSV_IRQn 0 */
  /* USER CODE BEGIN PendSV_IRQn 1 */

  /* USER CODE END PendSV_IRQn 1 */
}
 80005c6:	46c0      	nop			@ (mov r8, r8)
 80005c8:	46bd      	mov	sp, r7
 80005ca:	bd80      	pop	{r7, pc}

080005cc <SysTick_Handler>:

/**
  * @brief This function handles System tick timer.
  */
void SysTick_Handler(void)
{
 80005cc:	b580      	push	{r7, lr}
 80005ce:	af00      	add	r7, sp, #0
  /* USER CODE BEGIN SysTick_IRQn 0 */

  /* USER CODE END SysTick_IRQn 0 */
  HAL_IncTick();
 80005d0:	f000 f8b2 	bl	8000738 <HAL_IncTick>
  /* USER CODE BEGIN SysTick_IRQn 1 */

  /* USER CODE END SysTick_IRQn 1 */
}
 80005d4:	46c0      	nop			@ (mov r8, r8)
 80005d6:	46bd      	mov	sp, r7
 80005d8:	bd80      	pop	{r7, pc}
	...

080005dc <TIM3_IRQHandler>:

/**
  * @brief This function handles TIM3 global interrupt.
  */
void TIM3_IRQHandler(void)
{
 80005dc:	b580      	push	{r7, lr}
 80005de:	af00      	add	r7, sp, #0
  /* USER CODE BEGIN TIM3_IRQn 0 */
  // Her timer interrupt geldiğinde PA11 toggle edilsin
  HAL_GPIO_TogglePin(GPIOA, GPIO_PIN_12);
 80005e0:	2380      	movs	r3, #128	@ 0x80
 80005e2:	015a      	lsls	r2, r3, #5
 80005e4:	23a0      	movs	r3, #160	@ 0xa0
 80005e6:	05db      	lsls	r3, r3, #23
 80005e8:	0011      	movs	r1, r2
 80005ea:	0018      	movs	r0, r3
 80005ec:	f000 fb1f 	bl	8000c2e <HAL_GPIO_TogglePin>
  /* USER CODE END TIM3_IRQn 0 */

  HAL_TIM_IRQHandler(&htim3);
 80005f0:	4b03      	ldr	r3, [pc, #12]	@ (8000600 <TIM3_IRQHandler+0x24>)
 80005f2:	0018      	movs	r0, r3
 80005f4:	f001 f916 	bl	8001824 <HAL_TIM_IRQHandler>

  /* USER CODE BEGIN TIM3_IRQn 1 */
  /* USER CODE END TIM3_IRQn 1 */
}
 80005f8:	46c0      	nop			@ (mov r8, r8)
 80005fa:	46bd      	mov	sp, r7
 80005fc:	bd80      	pop	{r7, pc}
 80005fe:	46c0      	nop			@ (mov r8, r8)
 8000600:	20000028 	.word	0x20000028

08000604 <SystemInit>:
  * @brief  Setup the microcontroller system.
  * @param  None
  * @retval None
  */
void SystemInit(void)
{
 8000604:	b580      	push	{r7, lr}
 8000606:	af00      	add	r7, sp, #0
  /* Configure the Vector Table location -------------------------------------*/
#if defined(USER_VECT_TAB_ADDRESS)
  SCB->VTOR = VECT_TAB_BASE_ADDRESS | VECT_TAB_OFFSET; /* Vector Table Relocation */
#endif /* USER_VECT_TAB_ADDRESS */
}
 8000608:	46c0      	nop			@ (mov r8, r8)
 800060a:	46bd      	mov	sp, r7
 800060c:	bd80      	pop	{r7, pc}
	...

08000610 <Reset_Handler>:

  .section .text.Reset_Handler
  .weak Reset_Handler
  .type Reset_Handler, %function
Reset_Handler:
  ldr   r0, =_estack
 8000610:	480d      	ldr	r0, [pc, #52]	@ (8000648 <LoopForever+0x2>)
  mov   sp, r0          /* set stack pointer */
 8000612:	4685      	mov	sp, r0

/* Call the clock system initialization function.*/
  bl  SystemInit
 8000614:	f7ff fff6 	bl	8000604 <SystemInit>

/* Copy the data segment initializers from flash to SRAM */
  ldr r0, =_sdata
 8000618:	480c      	ldr	r0, [pc, #48]	@ (800064c <LoopForever+0x6>)
  ldr r1, =_edata
 800061a:	490d      	ldr	r1, [pc, #52]	@ (8000650 <LoopForever+0xa>)
  ldr r2, =_sidata
 800061c:	4a0d      	ldr	r2, [pc, #52]	@ (8000654 <LoopForever+0xe>)
  movs r3, #0
 800061e:	2300      	movs	r3, #0
  b LoopCopyDataInit
 8000620:	e002      	b.n	8000628 <LoopCopyDataInit>

08000622 <CopyDataInit>:

CopyDataInit:
  ldr r4, [r2, r3]
 8000622:	58d4      	ldr	r4, [r2, r3]
  str r4, [r0, r3]
 8000624:	50c4      	str	r4, [r0, r3]
  adds r3, r3, #4
 8000626:	3304      	adds	r3, #4

08000628 <LoopCopyDataInit>:

LoopCopyDataInit:
  adds r4, r0, r3
 8000628:	18c4      	adds	r4, r0, r3
  cmp r4, r1
 800062a:	428c      	cmp	r4, r1
  bcc CopyDataInit
 800062c:	d3f9      	bcc.n	8000622 <CopyDataInit>

/* Zero fill the bss segment. */
  ldr r2, =_sbss
 800062e:	4a0a      	ldr	r2, [pc, #40]	@ (8000658 <LoopForever+0x12>)
  ldr r4, =_ebss
 8000630:	4c0a      	ldr	r4, [pc, #40]	@ (800065c <LoopForever+0x16>)
  movs r3, #0
 8000632:	2300      	movs	r3, #0
  b LoopFillZerobss
 8000634:	e001      	b.n	800063a <LoopFillZerobss>

08000636 <FillZerobss>:

FillZerobss:
  str  r3, [r2]
 8000636:	6013      	str	r3, [r2, #0]
  adds r2, r2, #4
 8000638:	3204      	adds	r2, #4

0800063a <LoopFillZerobss>:

LoopFillZerobss:
  cmp r2, r4
 800063a:	42a2      	cmp	r2, r4
  bcc FillZerobss
 800063c:	d3fb      	bcc.n	8000636 <FillZerobss>

/* Call static constructors */
  bl __libc_init_array
 800063e:	f002 f82b 	bl	8002698 <__libc_init_array>
/* Call the application s entry point.*/
  bl main
 8000642:	f7ff fde9 	bl	8000218 <main>

08000646 <LoopForever>:

LoopForever:
  b LoopForever
 8000646:	e7fe      	b.n	8000646 <LoopForever>
  ldr   r0, =_estack
 8000648:	20002000 	.word	0x20002000
  ldr r0, =_sdata
 800064c:	20000000 	.word	0x20000000
  ldr r1, =_edata
 8000650:	2000000c 	.word	0x2000000c
  ldr r2, =_sidata
 8000654:	08002794 	.word	0x08002794
  ldr r2, =_sbss
 8000658:	2000000c 	.word	0x2000000c
  ldr r4, =_ebss
 800065c:	20000078 	.word	0x20000078

08000660 <ADC1_IRQHandler>:
 * @retval None
*/
  .section .text.Default_Handler,"ax",%progbits
Default_Handler:
Infinite_Loop:
  b Infinite_Loop
 8000660:	e7fe      	b.n	8000660 <ADC1_IRQHandler>
	...

08000664 <HAL_Init>:
  *         each 1ms in the SysTick_Handler() interrupt handler.
  *
  * @retval HAL status
  */
HAL_StatusTypeDef HAL_Init(void)
{
 8000664:	b580      	push	{r7, lr}
 8000666:	b082      	sub	sp, #8
 8000668:	af00      	add	r7, sp, #0
  HAL_StatusTypeDef  status = HAL_OK;
 800066a:	1dfb      	adds	r3, r7, #7
 800066c:	2200      	movs	r2, #0
 800066e:	701a      	strb	r2, [r3, #0]
#if (INSTRUCTION_CACHE_ENABLE == 0U)
  __HAL_FLASH_INSTRUCTION_CACHE_DISABLE();
#endif /* INSTRUCTION_CACHE_ENABLE */

#if (PREFETCH_ENABLE != 0U)
  __HAL_FLASH_PREFETCH_BUFFER_ENABLE();
 8000670:	4b0b      	ldr	r3, [pc, #44]	@ (80006a0 <HAL_Init+0x3c>)
 8000672:	681a      	ldr	r2, [r3, #0]
 8000674:	4b0a      	ldr	r3, [pc, #40]	@ (80006a0 <HAL_Init+0x3c>)
 8000676:	2180      	movs	r1, #128	@ 0x80
 8000678:	0049      	lsls	r1, r1, #1
 800067a:	430a      	orrs	r2, r1
 800067c:	601a      	str	r2, [r3, #0]
#endif /* PREFETCH_ENABLE */

  /* Use SysTick as time base source and configure 1ms tick (default clock after Reset is HSI) */
  if (HAL_InitTick(TICK_INT_PRIORITY) != HAL_OK)
 800067e:	2003      	movs	r0, #3
 8000680:	f000 f810 	bl	80006a4 <HAL_InitTick>
 8000684:	1e03      	subs	r3, r0, #0
 8000686:	d003      	beq.n	8000690 <HAL_Init+0x2c>
  {
    status = HAL_ERROR;
 8000688:	1dfb      	adds	r3, r7, #7
 800068a:	2201      	movs	r2, #1
 800068c:	701a      	strb	r2, [r3, #0]
 800068e:	e001      	b.n	8000694 <HAL_Init+0x30>
  }
  else
  {
  /* Init the low level hardware */
  HAL_MspInit();
 8000690:	f7ff ff04 	bl	800049c <HAL_MspInit>
  }

  /* Return function status */
  return status;
 8000694:	1dfb      	adds	r3, r7, #7
 8000696:	781b      	ldrb	r3, [r3, #0]
}
 8000698:	0018      	movs	r0, r3
 800069a:	46bd      	mov	sp, r7
 800069c:	b002      	add	sp, #8
 800069e:	bd80      	pop	{r7, pc}
 80006a0:	40022000 	.word	0x40022000

080006a4 <HAL_InitTick>:
  *       implementation  in user file.
  * @param TickPriority Tick interrupt priority.
  * @retval HAL status
  */
__weak HAL_StatusTypeDef HAL_InitTick(uint32_t TickPriority)
{
 80006a4:	b590      	push	{r4, r7, lr}
 80006a6:	b085      	sub	sp, #20
 80006a8:	af00      	add	r7, sp, #0
 80006aa:	6078      	str	r0, [r7, #4]
  HAL_StatusTypeDef  status = HAL_OK;
 80006ac:	230f      	movs	r3, #15
 80006ae:	18fb      	adds	r3, r7, r3
 80006b0:	2200      	movs	r2, #0
 80006b2:	701a      	strb	r2, [r3, #0]

  /* Check uwTickFreq for MisraC 2012 (even if uwTickFreq is a enum type that doesn't take the value zero)*/ 
  if ((uint32_t)uwTickFreq != 0U)
 80006b4:	4b1d      	ldr	r3, [pc, #116]	@ (800072c <HAL_InitTick+0x88>)
 80006b6:	781b      	ldrb	r3, [r3, #0]
 80006b8:	2b00      	cmp	r3, #0
 80006ba:	d02b      	beq.n	8000714 <HAL_InitTick+0x70>
  {
    /*Configure the SysTick to have interrupt in 1ms time basis*/
    if (HAL_SYSTICK_Config(SystemCoreClock / (1000U /(uint32_t)uwTickFreq)) == 0U)
 80006bc:	4b1c      	ldr	r3, [pc, #112]	@ (8000730 <HAL_InitTick+0x8c>)
 80006be:	681c      	ldr	r4, [r3, #0]
 80006c0:	4b1a      	ldr	r3, [pc, #104]	@ (800072c <HAL_InitTick+0x88>)
 80006c2:	781b      	ldrb	r3, [r3, #0]
 80006c4:	0019      	movs	r1, r3
 80006c6:	23fa      	movs	r3, #250	@ 0xfa
 80006c8:	0098      	lsls	r0, r3, #2
 80006ca:	f7ff fd19 	bl	8000100 <__udivsi3>
 80006ce:	0003      	movs	r3, r0
 80006d0:	0019      	movs	r1, r3
 80006d2:	0020      	movs	r0, r4
 80006d4:	f7ff fd14 	bl	8000100 <__udivsi3>
 80006d8:	0003      	movs	r3, r0
 80006da:	0018      	movs	r0, r3
 80006dc:	f000 f919 	bl	8000912 <HAL_SYSTICK_Config>
 80006e0:	1e03      	subs	r3, r0, #0
 80006e2:	d112      	bne.n	800070a <HAL_InitTick+0x66>
    {
      /* Configure the SysTick IRQ priority */
      if (TickPriority < (1UL << __NVIC_PRIO_BITS))
 80006e4:	687b      	ldr	r3, [r7, #4]
 80006e6:	2b03      	cmp	r3, #3
 80006e8:	d80a      	bhi.n	8000700 <HAL_InitTick+0x5c>
      {
        HAL_NVIC_SetPriority(SysTick_IRQn, TickPriority, 0U);
 80006ea:	6879      	ldr	r1, [r7, #4]
 80006ec:	2301      	movs	r3, #1
 80006ee:	425b      	negs	r3, r3
 80006f0:	2200      	movs	r2, #0
 80006f2:	0018      	movs	r0, r3
 80006f4:	f000 f8e8 	bl	80008c8 <HAL_NVIC_SetPriority>
        uwTickPrio = TickPriority;
 80006f8:	4b0e      	ldr	r3, [pc, #56]	@ (8000734 <HAL_InitTick+0x90>)
 80006fa:	687a      	ldr	r2, [r7, #4]
 80006fc:	601a      	str	r2, [r3, #0]
 80006fe:	e00d      	b.n	800071c <HAL_InitTick+0x78>
      }
      else
      {
        status = HAL_ERROR;
 8000700:	230f      	movs	r3, #15
 8000702:	18fb      	adds	r3, r7, r3
 8000704:	2201      	movs	r2, #1
 8000706:	701a      	strb	r2, [r3, #0]
 8000708:	e008      	b.n	800071c <HAL_InitTick+0x78>
      }
    }
    else
    {
      status = HAL_ERROR;
 800070a:	230f      	movs	r3, #15
 800070c:	18fb      	adds	r3, r7, r3
 800070e:	2201      	movs	r2, #1
 8000710:	701a      	strb	r2, [r3, #0]
 8000712:	e003      	b.n	800071c <HAL_InitTick+0x78>
    }
  }
  else
  {
    status = HAL_ERROR;
 8000714:	230f      	movs	r3, #15
 8000716:	18fb      	adds	r3, r7, r3
 8000718:	2201      	movs	r2, #1
 800071a:	701a      	strb	r2, [r3, #0]
  }

  /* Return function status */
  return status;
 800071c:	230f      	movs	r3, #15
 800071e:	18fb      	adds	r3, r7, r3
 8000720:	781b      	ldrb	r3, [r3, #0]
}
 8000722:	0018      	movs	r0, r3
 8000724:	46bd      	mov	sp, r7
 8000726:	b005      	add	sp, #20
 8000728:	bd90      	pop	{r4, r7, pc}
 800072a:	46c0      	nop			@ (mov r8, r8)
 800072c:	20000008 	.word	0x20000008
 8000730:	20000000 	.word	0x20000000
 8000734:	20000004 	.word	0x20000004

08000738 <HAL_IncTick>:
  * @note This function is declared as __weak to be overwritten in case of other
  *      implementations in user file.
  * @retval None
  */
__weak void HAL_IncTick(void)
{
 8000738:	b580      	push	{r7, lr}
 800073a:	af00      	add	r7, sp, #0
  uwTick += (uint32_t)uwTickFreq;
 800073c:	4b05      	ldr	r3, [pc, #20]	@ (8000754 <HAL_IncTick+0x1c>)
 800073e:	781b      	ldrb	r3, [r3, #0]
 8000740:	001a      	movs	r2, r3
 8000742:	4b05      	ldr	r3, [pc, #20]	@ (8000758 <HAL_IncTick+0x20>)
 8000744:	681b      	ldr	r3, [r3, #0]
 8000746:	18d2      	adds	r2, r2, r3
 8000748:	4b03      	ldr	r3, [pc, #12]	@ (8000758 <HAL_IncTick+0x20>)
 800074a:	601a      	str	r2, [r3, #0]
}
 800074c:	46c0      	nop			@ (mov r8, r8)
 800074e:	46bd      	mov	sp, r7
 8000750:	bd80      	pop	{r7, pc}
 8000752:	46c0      	nop			@ (mov r8, r8)
 8000754:	20000008 	.word	0x20000008
 8000758:	20000074 	.word	0x20000074

0800075c <HAL_GetTick>:
  * @note This function is declared as __weak to be overwritten in case of other
  *       implementations in user file.
  * @retval tick value
  */
__weak uint32_t HAL_GetTick(void)
{
 800075c:	b580      	push	{r7, lr}
 800075e:	af00      	add	r7, sp, #0
  return uwTick;
 8000760:	4b02      	ldr	r3, [pc, #8]	@ (800076c <HAL_GetTick+0x10>)
 8000762:	681b      	ldr	r3, [r3, #0]
}
 8000764:	0018      	movs	r0, r3
 8000766:	46bd      	mov	sp, r7
 8000768:	bd80      	pop	{r7, pc}
 800076a:	46c0      	nop			@ (mov r8, r8)
 800076c:	20000074 	.word	0x20000074

08000770 <__NVIC_EnableIRQ>:
  \details Enables a device specific interrupt in the NVIC interrupt controller.
  \param [in]      IRQn  Device specific interrupt number.
  \note    IRQn must not be negative.
 */
__STATIC_INLINE void __NVIC_EnableIRQ(IRQn_Type IRQn)
{
 8000770:	b580      	push	{r7, lr}
 8000772:	b082      	sub	sp, #8
 8000774:	af00      	add	r7, sp, #0
 8000776:	0002      	movs	r2, r0
 8000778:	1dfb      	adds	r3, r7, #7
 800077a:	701a      	strb	r2, [r3, #0]
  if ((int32_t)(IRQn) >= 0)
 800077c:	1dfb      	adds	r3, r7, #7
 800077e:	781b      	ldrb	r3, [r3, #0]
 8000780:	2b7f      	cmp	r3, #127	@ 0x7f
 8000782:	d809      	bhi.n	8000798 <__NVIC_EnableIRQ+0x28>
  {
    __COMPILER_BARRIER();
    NVIC->ISER[0U] = (uint32_t)(1UL << (((uint32_t)IRQn) & 0x1FUL));
 8000784:	1dfb      	adds	r3, r7, #7
 8000786:	781b      	ldrb	r3, [r3, #0]
 8000788:	001a      	movs	r2, r3
 800078a:	231f      	movs	r3, #31
 800078c:	401a      	ands	r2, r3
 800078e:	4b04      	ldr	r3, [pc, #16]	@ (80007a0 <__NVIC_EnableIRQ+0x30>)
 8000790:	2101      	movs	r1, #1
 8000792:	4091      	lsls	r1, r2
 8000794:	000a      	movs	r2, r1
 8000796:	601a      	str	r2, [r3, #0]
    __COMPILER_BARRIER();
  }
}
 8000798:	46c0      	nop			@ (mov r8, r8)
 800079a:	46bd      	mov	sp, r7
 800079c:	b002      	add	sp, #8
 800079e:	bd80      	pop	{r7, pc}
 80007a0:	e000e100 	.word	0xe000e100

080007a4 <__NVIC_SetPriority>:
  \param [in]      IRQn  Interrupt number.
  \param [in]  priority  Priority to set.
  \note    The priority cannot be set for every processor exception.
 */
__STATIC_INLINE void __NVIC_SetPriority(IRQn_Type IRQn, uint32_t priority)
{
 80007a4:	b590      	push	{r4, r7, lr}
 80007a6:	b083      	sub	sp, #12
 80007a8:	af00      	add	r7, sp, #0
 80007aa:	0002      	movs	r2, r0
 80007ac:	6039      	str	r1, [r7, #0]
 80007ae:	1dfb      	adds	r3, r7, #7
 80007b0:	701a      	strb	r2, [r3, #0]
  if ((int32_t)(IRQn) >= 0)
 80007b2:	1dfb      	adds	r3, r7, #7
 80007b4:	781b      	ldrb	r3, [r3, #0]
 80007b6:	2b7f      	cmp	r3, #127	@ 0x7f
 80007b8:	d828      	bhi.n	800080c <__NVIC_SetPriority+0x68>
  {
    NVIC->IP[_IP_IDX(IRQn)]  = ((uint32_t)(NVIC->IP[_IP_IDX(IRQn)]  & ~(0xFFUL << _BIT_SHIFT(IRQn))) |
 80007ba:	4a2f      	ldr	r2, [pc, #188]	@ (8000878 <__NVIC_SetPriority+0xd4>)
 80007bc:	1dfb      	adds	r3, r7, #7
 80007be:	781b      	ldrb	r3, [r3, #0]
 80007c0:	b25b      	sxtb	r3, r3
 80007c2:	089b      	lsrs	r3, r3, #2
 80007c4:	33c0      	adds	r3, #192	@ 0xc0
 80007c6:	009b      	lsls	r3, r3, #2
 80007c8:	589b      	ldr	r3, [r3, r2]
 80007ca:	1dfa      	adds	r2, r7, #7
 80007cc:	7812      	ldrb	r2, [r2, #0]
 80007ce:	0011      	movs	r1, r2
 80007d0:	2203      	movs	r2, #3
 80007d2:	400a      	ands	r2, r1
 80007d4:	00d2      	lsls	r2, r2, #3
 80007d6:	21ff      	movs	r1, #255	@ 0xff
 80007d8:	4091      	lsls	r1, r2
 80007da:	000a      	movs	r2, r1
 80007dc:	43d2      	mvns	r2, r2
 80007de:	401a      	ands	r2, r3
 80007e0:	0011      	movs	r1, r2
       (((priority << (8U - __NVIC_PRIO_BITS)) & (uint32_t)0xFFUL) << _BIT_SHIFT(IRQn)));
 80007e2:	683b      	ldr	r3, [r7, #0]
 80007e4:	019b      	lsls	r3, r3, #6
 80007e6:	22ff      	movs	r2, #255	@ 0xff
 80007e8:	401a      	ands	r2, r3
 80007ea:	1dfb      	adds	r3, r7, #7
 80007ec:	781b      	ldrb	r3, [r3, #0]
 80007ee:	0018      	movs	r0, r3
 80007f0:	2303      	movs	r3, #3
 80007f2:	4003      	ands	r3, r0
 80007f4:	00db      	lsls	r3, r3, #3
 80007f6:	409a      	lsls	r2, r3
    NVIC->IP[_IP_IDX(IRQn)]  = ((uint32_t)(NVIC->IP[_IP_IDX(IRQn)]  & ~(0xFFUL << _BIT_SHIFT(IRQn))) |
 80007f8:	481f      	ldr	r0, [pc, #124]	@ (8000878 <__NVIC_SetPriority+0xd4>)
 80007fa:	1dfb      	adds	r3, r7, #7
 80007fc:	781b      	ldrb	r3, [r3, #0]
 80007fe:	b25b      	sxtb	r3, r3
 8000800:	089b      	lsrs	r3, r3, #2
 8000802:	430a      	orrs	r2, r1
 8000804:	33c0      	adds	r3, #192	@ 0xc0
 8000806:	009b      	lsls	r3, r3, #2
 8000808:	501a      	str	r2, [r3, r0]
  else
  {
    SCB->SHP[_SHP_IDX(IRQn)] = ((uint32_t)(SCB->SHP[_SHP_IDX(IRQn)] & ~(0xFFUL << _BIT_SHIFT(IRQn))) |
       (((priority << (8U - __NVIC_PRIO_BITS)) & (uint32_t)0xFFUL) << _BIT_SHIFT(IRQn)));
  }
}
 800080a:	e031      	b.n	8000870 <__NVIC_SetPriority+0xcc>
    SCB->SHP[_SHP_IDX(IRQn)] = ((uint32_t)(SCB->SHP[_SHP_IDX(IRQn)] & ~(0xFFUL << _BIT_SHIFT(IRQn))) |
 800080c:	4a1b      	ldr	r2, [pc, #108]	@ (800087c <__NVIC_SetPriority+0xd8>)
 800080e:	1dfb      	adds	r3, r7, #7
 8000810:	781b      	ldrb	r3, [r3, #0]
 8000812:	0019      	movs	r1, r3
 8000814:	230f      	movs	r3, #15
 8000816:	400b      	ands	r3, r1
 8000818:	3b08      	subs	r3, #8
 800081a:	089b      	lsrs	r3, r3, #2
 800081c:	3306      	adds	r3, #6
 800081e:	009b      	lsls	r3, r3, #2
 8000820:	18d3      	adds	r3, r2, r3
 8000822:	3304      	adds	r3, #4
 8000824:	681b      	ldr	r3, [r3, #0]
 8000826:	1dfa      	adds	r2, r7, #7
 8000828:	7812      	ldrb	r2, [r2, #0]
 800082a:	0011      	movs	r1, r2
 800082c:	2203      	movs	r2, #3
 800082e:	400a      	ands	r2, r1
 8000830:	00d2      	lsls	r2, r2, #3
 8000832:	21ff      	movs	r1, #255	@ 0xff
 8000834:	4091      	lsls	r1, r2
 8000836:	000a      	movs	r2, r1
 8000838:	43d2      	mvns	r2, r2
 800083a:	401a      	ands	r2, r3
 800083c:	0011      	movs	r1, r2
       (((priority << (8U - __NVIC_PRIO_BITS)) & (uint32_t)0xFFUL) << _BIT_SHIFT(IRQn)));
 800083e:	683b      	ldr	r3, [r7, #0]
 8000840:	019b      	lsls	r3, r3, #6
 8000842:	22ff      	movs	r2, #255	@ 0xff
 8000844:	401a      	ands	r2, r3
 8000846:	1dfb      	adds	r3, r7, #7
 8000848:	781b      	ldrb	r3, [r3, #0]
 800084a:	0018      	movs	r0, r3
 800084c:	2303      	movs	r3, #3
 800084e:	4003      	ands	r3, r0
 8000850:	00db      	lsls	r3, r3, #3
 8000852:	409a      	lsls	r2, r3
    SCB->SHP[_SHP_IDX(IRQn)] = ((uint32_t)(SCB->SHP[_SHP_IDX(IRQn)] & ~(0xFFUL << _BIT_SHIFT(IRQn))) |
 8000854:	4809      	ldr	r0, [pc, #36]	@ (800087c <__NVIC_SetPriority+0xd8>)
 8000856:	1dfb      	adds	r3, r7, #7
 8000858:	781b      	ldrb	r3, [r3, #0]
 800085a:	001c      	movs	r4, r3
 800085c:	230f      	movs	r3, #15
 800085e:	4023      	ands	r3, r4
 8000860:	3b08      	subs	r3, #8
 8000862:	089b      	lsrs	r3, r3, #2
 8000864:	430a      	orrs	r2, r1
 8000866:	3306      	adds	r3, #6
 8000868:	009b      	lsls	r3, r3, #2
 800086a:	18c3      	adds	r3, r0, r3
 800086c:	3304      	adds	r3, #4
 800086e:	601a      	str	r2, [r3, #0]
}
 8000870:	46c0      	nop			@ (mov r8, r8)
 8000872:	46bd      	mov	sp, r7
 8000874:	b003      	add	sp, #12
 8000876:	bd90      	pop	{r4, r7, pc}
 8000878:	e000e100 	.word	0xe000e100
 800087c:	e000ed00 	.word	0xe000ed00

08000880 <SysTick_Config>:
  \note    When the variable <b>__Vendor_SysTickConfig</b> is set to 1, then the
           function <b>SysTick_Config</b> is not included. In this case, the file <b><i>device</i>.h</b>
           must contain a vendor-specific implementation of this function.
 */
__STATIC_INLINE uint32_t SysTick_Config(uint32_t ticks)
{
 8000880:	b580      	push	{r7, lr}
 8000882:	b082      	sub	sp, #8
 8000884:	af00      	add	r7, sp, #0
 8000886:	6078      	str	r0, [r7, #4]
  if ((ticks - 1UL) > SysTick_LOAD_RELOAD_Msk)
 8000888:	687b      	ldr	r3, [r7, #4]
 800088a:	1e5a      	subs	r2, r3, #1
 800088c:	2380      	movs	r3, #128	@ 0x80
 800088e:	045b      	lsls	r3, r3, #17
 8000890:	429a      	cmp	r2, r3
 8000892:	d301      	bcc.n	8000898 <SysTick_Config+0x18>
  {
    return (1UL);                                                   /* Reload value impossible */
 8000894:	2301      	movs	r3, #1
 8000896:	e010      	b.n	80008ba <SysTick_Config+0x3a>
  }

  SysTick->LOAD  = (uint32_t)(ticks - 1UL);                         /* set reload register */
 8000898:	4b0a      	ldr	r3, [pc, #40]	@ (80008c4 <SysTick_Config+0x44>)
 800089a:	687a      	ldr	r2, [r7, #4]
 800089c:	3a01      	subs	r2, #1
 800089e:	605a      	str	r2, [r3, #4]
  NVIC_SetPriority (SysTick_IRQn, (1UL << __NVIC_PRIO_BITS) - 1UL); /* set Priority for Systick Interrupt */
 80008a0:	2301      	movs	r3, #1
 80008a2:	425b      	negs	r3, r3
 80008a4:	2103      	movs	r1, #3
 80008a6:	0018      	movs	r0, r3
 80008a8:	f7ff ff7c 	bl	80007a4 <__NVIC_SetPriority>
  SysTick->VAL   = 0UL;                                             /* Load the SysTick Counter Value */
 80008ac:	4b05      	ldr	r3, [pc, #20]	@ (80008c4 <SysTick_Config+0x44>)
 80008ae:	2200      	movs	r2, #0
 80008b0:	609a      	str	r2, [r3, #8]
  SysTick->CTRL  = SysTick_CTRL_CLKSOURCE_Msk |
 80008b2:	4b04      	ldr	r3, [pc, #16]	@ (80008c4 <SysTick_Config+0x44>)
 80008b4:	2207      	movs	r2, #7
 80008b6:	601a      	str	r2, [r3, #0]
                   SysTick_CTRL_TICKINT_Msk   |
                   SysTick_CTRL_ENABLE_Msk;                         /* Enable SysTick IRQ and SysTick Timer */
  return (0UL);                                                     /* Function successful */
 80008b8:	2300      	movs	r3, #0
}
 80008ba:	0018      	movs	r0, r3
 80008bc:	46bd      	mov	sp, r7
 80008be:	b002      	add	sp, #8
 80008c0:	bd80      	pop	{r7, pc}
 80008c2:	46c0      	nop			@ (mov r8, r8)
 80008c4:	e000e010 	.word	0xe000e010

080008c8 <HAL_NVIC_SetPriority>:
  *         with stm32g0xx devices, this parameter is a dummy value and it is ignored, because
  *         no subpriority supported in Cortex M0+ based products.
  * @retval None
  */
void HAL_NVIC_SetPriority(IRQn_Type IRQn, uint32_t PreemptPriority, uint32_t SubPriority)
{
 80008c8:	b580      	push	{r7, lr}
 80008ca:	b084      	sub	sp, #16
 80008cc:	af00      	add	r7, sp, #0
 80008ce:	60b9      	str	r1, [r7, #8]
 80008d0:	607a      	str	r2, [r7, #4]
 80008d2:	210f      	movs	r1, #15
 80008d4:	187b      	adds	r3, r7, r1
 80008d6:	1c02      	adds	r2, r0, #0
 80008d8:	701a      	strb	r2, [r3, #0]
  /* Prevent unused argument(s) compilation warning */
  UNUSED(SubPriority);

  /* Check the parameters */
  assert_param(IS_NVIC_PREEMPTION_PRIORITY(PreemptPriority));
  NVIC_SetPriority(IRQn, PreemptPriority);
 80008da:	68ba      	ldr	r2, [r7, #8]
 80008dc:	187b      	adds	r3, r7, r1
 80008de:	781b      	ldrb	r3, [r3, #0]
 80008e0:	b25b      	sxtb	r3, r3
 80008e2:	0011      	movs	r1, r2
 80008e4:	0018      	movs	r0, r3
 80008e6:	f7ff ff5d 	bl	80007a4 <__NVIC_SetPriority>
}
 80008ea:	46c0      	nop			@ (mov r8, r8)
 80008ec:	46bd      	mov	sp, r7
 80008ee:	b004      	add	sp, #16
 80008f0:	bd80      	pop	{r7, pc}

080008f2 <HAL_NVIC_EnableIRQ>:
  *         This parameter can be an enumerator of IRQn_Type enumeration
  *         (For the complete STM32 Devices IRQ Channels list, please refer to the appropriate CMSIS device file (stm32g0xxxx.h))
  * @retval None
  */
void HAL_NVIC_EnableIRQ(IRQn_Type IRQn)
{
 80008f2:	b580      	push	{r7, lr}
 80008f4:	b082      	sub	sp, #8
 80008f6:	af00      	add	r7, sp, #0
 80008f8:	0002      	movs	r2, r0
 80008fa:	1dfb      	adds	r3, r7, #7
 80008fc:	701a      	strb	r2, [r3, #0]
  /* Check the parameters */
  assert_param(IS_NVIC_DEVICE_IRQ(IRQn));

  /* Enable interrupt */
  NVIC_EnableIRQ(IRQn);
 80008fe:	1dfb      	adds	r3, r7, #7
 8000900:	781b      	ldrb	r3, [r3, #0]
 8000902:	b25b      	sxtb	r3, r3
 8000904:	0018      	movs	r0, r3
 8000906:	f7ff ff33 	bl	8000770 <__NVIC_EnableIRQ>
}
 800090a:	46c0      	nop			@ (mov r8, r8)
 800090c:	46bd      	mov	sp, r7
 800090e:	b002      	add	sp, #8
 8000910:	bd80      	pop	{r7, pc}

08000912 <HAL_SYSTICK_Config>:
  * @param  TicksNumb Specifies the ticks Number of ticks between two interrupts.
  * @retval status:  - 0  Function succeeded.
  *                  - 1  Function failed.
  */
uint32_t HAL_SYSTICK_Config(uint32_t TicksNumb)
{
 8000912:	b580      	push	{r7, lr}
 8000914:	b082      	sub	sp, #8
 8000916:	af00      	add	r7, sp, #0
 8000918:	6078      	str	r0, [r7, #4]
  return SysTick_Config(TicksNumb);
 800091a:	687b      	ldr	r3, [r7, #4]
 800091c:	0018      	movs	r0, r3
 800091e:	f7ff ffaf 	bl	8000880 <SysTick_Config>
 8000922:	0003      	movs	r3, r0
}
 8000924:	0018      	movs	r0, r3
 8000926:	46bd      	mov	sp, r7
 8000928:	b002      	add	sp, #8
 800092a:	bd80      	pop	{r7, pc}

0800092c <HAL_GPIO_Init>:
  * @param  GPIO_Init pointer to a GPIO_InitTypeDef structure that contains
  *         the configuration information for the specified GPIO peripheral.
  * @retval None
  */
void HAL_GPIO_Init(GPIO_TypeDef  *GPIOx, GPIO_InitTypeDef *GPIO_Init)
{
 800092c:	b580      	push	{r7, lr}
 800092e:	b086      	sub	sp, #24
 8000930:	af00      	add	r7, sp, #0
 8000932:	6078      	str	r0, [r7, #4]
 8000934:	6039      	str	r1, [r7, #0]
  uint32_t position = 0x00u;
 8000936:	2300      	movs	r3, #0
 8000938:	617b      	str	r3, [r7, #20]
  assert_param(IS_GPIO_ALL_INSTANCE(GPIOx));
  assert_param(IS_GPIO_PIN(GPIO_Init->Pin));
  assert_param(IS_GPIO_MODE(GPIO_Init->Mode));

  /* Configure the port pins */
  while (((GPIO_Init->Pin) >> position) != 0x00u)
 800093a:	e147      	b.n	8000bcc <HAL_GPIO_Init+0x2a0>
  {
    /* Get current io position */
    iocurrent = (GPIO_Init->Pin) & (1uL << position);
 800093c:	683b      	ldr	r3, [r7, #0]
 800093e:	681b      	ldr	r3, [r3, #0]
 8000940:	2101      	movs	r1, #1
 8000942:	697a      	ldr	r2, [r7, #20]
 8000944:	4091      	lsls	r1, r2
 8000946:	000a      	movs	r2, r1
 8000948:	4013      	ands	r3, r2
 800094a:	60fb      	str	r3, [r7, #12]

    if (iocurrent != 0x00u)
 800094c:	68fb      	ldr	r3, [r7, #12]
 800094e:	2b00      	cmp	r3, #0
 8000950:	d100      	bne.n	8000954 <HAL_GPIO_Init+0x28>
 8000952:	e138      	b.n	8000bc6 <HAL_GPIO_Init+0x29a>
    {
      /*--------------------- GPIO Mode Configuration ------------------------*/
      /* In case of Output or Alternate function mode selection */
      if (((GPIO_Init->Mode & GPIO_MODE) == MODE_OUTPUT) || ((GPIO_Init->Mode & GPIO_MODE) == MODE_AF))
 8000954:	683b      	ldr	r3, [r7, #0]
 8000956:	685b      	ldr	r3, [r3, #4]
 8000958:	2203      	movs	r2, #3
 800095a:	4013      	ands	r3, r2
 800095c:	2b01      	cmp	r3, #1
 800095e:	d005      	beq.n	800096c <HAL_GPIO_Init+0x40>
 8000960:	683b      	ldr	r3, [r7, #0]
 8000962:	685b      	ldr	r3, [r3, #4]
 8000964:	2203      	movs	r2, #3
 8000966:	4013      	ands	r3, r2
 8000968:	2b02      	cmp	r3, #2
 800096a:	d130      	bne.n	80009ce <HAL_GPIO_Init+0xa2>
      {
        /* Check the Speed parameter */
        assert_param(IS_GPIO_SPEED(GPIO_Init->Speed));

        /* Configure the IO Speed */
        temp = GPIOx->OSPEEDR;
 800096c:	687b      	ldr	r3, [r7, #4]
 800096e:	689b      	ldr	r3, [r3, #8]
 8000970:	613b      	str	r3, [r7, #16]
        temp &= ~(GPIO_OSPEEDR_OSPEED0 << (position * 2u));
 8000972:	697b      	ldr	r3, [r7, #20]
 8000974:	005b      	lsls	r3, r3, #1
 8000976:	2203      	movs	r2, #3
 8000978:	409a      	lsls	r2, r3
 800097a:	0013      	movs	r3, r2
 800097c:	43da      	mvns	r2, r3
 800097e:	693b      	ldr	r3, [r7, #16]
 8000980:	4013      	ands	r3, r2
 8000982:	613b      	str	r3, [r7, #16]
        temp |= (GPIO_Init->Speed << (position * 2u));
 8000984:	683b      	ldr	r3, [r7, #0]
 8000986:	68da      	ldr	r2, [r3, #12]
 8000988:	697b      	ldr	r3, [r7, #20]
 800098a:	005b      	lsls	r3, r3, #1
 800098c:	409a      	lsls	r2, r3
 800098e:	0013      	movs	r3, r2
 8000990:	693a      	ldr	r2, [r7, #16]
 8000992:	4313      	orrs	r3, r2
 8000994:	613b      	str	r3, [r7, #16]
        GPIOx->OSPEEDR = temp;
 8000996:	687b      	ldr	r3, [r7, #4]
 8000998:	693a      	ldr	r2, [r7, #16]
 800099a:	609a      	str	r2, [r3, #8]

        /* Configure the IO Output Type */
        temp = GPIOx->OTYPER;
 800099c:	687b      	ldr	r3, [r7, #4]
 800099e:	685b      	ldr	r3, [r3, #4]
 80009a0:	613b      	str	r3, [r7, #16]
        temp &= ~(GPIO_OTYPER_OT0 << position) ;
 80009a2:	2201      	movs	r2, #1
 80009a4:	697b      	ldr	r3, [r7, #20]
 80009a6:	409a      	lsls	r2, r3
 80009a8:	0013      	movs	r3, r2
 80009aa:	43da      	mvns	r2, r3
 80009ac:	693b      	ldr	r3, [r7, #16]
 80009ae:	4013      	ands	r3, r2
 80009b0:	613b      	str	r3, [r7, #16]
        temp |= (((GPIO_Init->Mode & OUTPUT_TYPE) >> OUTPUT_TYPE_Pos) << position);
 80009b2:	683b      	ldr	r3, [r7, #0]
 80009b4:	685b      	ldr	r3, [r3, #4]
 80009b6:	091b      	lsrs	r3, r3, #4
 80009b8:	2201      	movs	r2, #1
 80009ba:	401a      	ands	r2, r3
 80009bc:	697b      	ldr	r3, [r7, #20]
 80009be:	409a      	lsls	r2, r3
 80009c0:	0013      	movs	r3, r2
 80009c2:	693a      	ldr	r2, [r7, #16]
 80009c4:	4313      	orrs	r3, r2
 80009c6:	613b      	str	r3, [r7, #16]
        GPIOx->OTYPER = temp;
 80009c8:	687b      	ldr	r3, [r7, #4]
 80009ca:	693a      	ldr	r2, [r7, #16]
 80009cc:	605a      	str	r2, [r3, #4]
      }

      if ((GPIO_Init->Mode & GPIO_MODE) != MODE_ANALOG)
 80009ce:	683b      	ldr	r3, [r7, #0]
 80009d0:	685b      	ldr	r3, [r3, #4]
 80009d2:	2203      	movs	r2, #3
 80009d4:	4013      	ands	r3, r2
 80009d6:	2b03      	cmp	r3, #3
 80009d8:	d017      	beq.n	8000a0a <HAL_GPIO_Init+0xde>
      {
        /* Check the Pull parameter */
        assert_param(IS_GPIO_PULL(GPIO_Init->Pull));

        /* Activate the Pull-up or Pull down resistor for the current IO */
        temp = GPIOx->PUPDR;
 80009da:	687b      	ldr	r3, [r7, #4]
 80009dc:	68db      	ldr	r3, [r3, #12]
 80009de:	613b      	str	r3, [r7, #16]
        temp &= ~(GPIO_PUPDR_PUPD0 << (position * 2u));
 80009e0:	697b      	ldr	r3, [r7, #20]
 80009e2:	005b      	lsls	r3, r3, #1
 80009e4:	2203      	movs	r2, #3
 80009e6:	409a      	lsls	r2, r3
 80009e8:	0013      	movs	r3, r2
 80009ea:	43da      	mvns	r2, r3
 80009ec:	693b      	ldr	r3, [r7, #16]
 80009ee:	4013      	ands	r3, r2
 80009f0:	613b      	str	r3, [r7, #16]
        temp |= ((GPIO_Init->Pull) << (position * 2u));
 80009f2:	683b      	ldr	r3, [r7, #0]
 80009f4:	689a      	ldr	r2, [r3, #8]
 80009f6:	697b      	ldr	r3, [r7, #20]
 80009f8:	005b      	lsls	r3, r3, #1
 80009fa:	409a      	lsls	r2, r3
 80009fc:	0013      	movs	r3, r2
 80009fe:	693a      	ldr	r2, [r7, #16]
 8000a00:	4313      	orrs	r3, r2
 8000a02:	613b      	str	r3, [r7, #16]
        GPIOx->PUPDR = temp;
 8000a04:	687b      	ldr	r3, [r7, #4]
 8000a06:	693a      	ldr	r2, [r7, #16]
 8000a08:	60da      	str	r2, [r3, #12]
      }

      /* In case of Alternate function mode selection */
      if ((GPIO_Init->Mode & GPIO_MODE) == MODE_AF)
 8000a0a:	683b      	ldr	r3, [r7, #0]
 8000a0c:	685b      	ldr	r3, [r3, #4]
 8000a0e:	2203      	movs	r2, #3
 8000a10:	4013      	ands	r3, r2
 8000a12:	2b02      	cmp	r3, #2
 8000a14:	d123      	bne.n	8000a5e <HAL_GPIO_Init+0x132>
        /* Check the Alternate function parameters */
        assert_param(IS_GPIO_AF_INSTANCE(GPIOx));
        assert_param(IS_GPIO_AF(GPIO_Init->Alternate));

        /* Configure Alternate function mapped with the current IO */
        temp = GPIOx->AFR[position >> 3u];
 8000a16:	697b      	ldr	r3, [r7, #20]
 8000a18:	08da      	lsrs	r2, r3, #3
 8000a1a:	687b      	ldr	r3, [r7, #4]
 8000a1c:	3208      	adds	r2, #8
 8000a1e:	0092      	lsls	r2, r2, #2
 8000a20:	58d3      	ldr	r3, [r2, r3]
 8000a22:	613b      	str	r3, [r7, #16]
        temp &= ~(0xFu << ((position & 0x07u) * 4u));
 8000a24:	697b      	ldr	r3, [r7, #20]
 8000a26:	2207      	movs	r2, #7
 8000a28:	4013      	ands	r3, r2
 8000a2a:	009b      	lsls	r3, r3, #2
 8000a2c:	220f      	movs	r2, #15
 8000a2e:	409a      	lsls	r2, r3
 8000a30:	0013      	movs	r3, r2
 8000a32:	43da      	mvns	r2, r3
 8000a34:	693b      	ldr	r3, [r7, #16]
 8000a36:	4013      	ands	r3, r2
 8000a38:	613b      	str	r3, [r7, #16]
        temp |= ((GPIO_Init->Alternate) << ((position & 0x07u) * 4u));
 8000a3a:	683b      	ldr	r3, [r7, #0]
 8000a3c:	691a      	ldr	r2, [r3, #16]
 8000a3e:	697b      	ldr	r3, [r7, #20]
 8000a40:	2107      	movs	r1, #7
 8000a42:	400b      	ands	r3, r1
 8000a44:	009b      	lsls	r3, r3, #2
 8000a46:	409a      	lsls	r2, r3
 8000a48:	0013      	movs	r3, r2
 8000a4a:	693a      	ldr	r2, [r7, #16]
 8000a4c:	4313      	orrs	r3, r2
 8000a4e:	613b      	str	r3, [r7, #16]
        GPIOx->AFR[position >> 3u] = temp;
 8000a50:	697b      	ldr	r3, [r7, #20]
 8000a52:	08da      	lsrs	r2, r3, #3
 8000a54:	687b      	ldr	r3, [r7, #4]
 8000a56:	3208      	adds	r2, #8
 8000a58:	0092      	lsls	r2, r2, #2
 8000a5a:	6939      	ldr	r1, [r7, #16]
 8000a5c:	50d1      	str	r1, [r2, r3]
      }

      /* Configure IO Direction mode (Input, Output, Alternate or Analog) */
      temp = GPIOx->MODER;
 8000a5e:	687b      	ldr	r3, [r7, #4]
 8000a60:	681b      	ldr	r3, [r3, #0]
 8000a62:	613b      	str	r3, [r7, #16]
      temp &= ~(GPIO_MODER_MODE0 << (position * 2u));
 8000a64:	697b      	ldr	r3, [r7, #20]
 8000a66:	005b      	lsls	r3, r3, #1
 8000a68:	2203      	movs	r2, #3
 8000a6a:	409a      	lsls	r2, r3
 8000a6c:	0013      	movs	r3, r2
 8000a6e:	43da      	mvns	r2, r3
 8000a70:	693b      	ldr	r3, [r7, #16]
 8000a72:	4013      	ands	r3, r2
 8000a74:	613b      	str	r3, [r7, #16]
      temp |= ((GPIO_Init->Mode & GPIO_MODE) << (position * 2u));
 8000a76:	683b      	ldr	r3, [r7, #0]
 8000a78:	685b      	ldr	r3, [r3, #4]
 8000a7a:	2203      	movs	r2, #3
 8000a7c:	401a      	ands	r2, r3
 8000a7e:	697b      	ldr	r3, [r7, #20]
 8000a80:	005b      	lsls	r3, r3, #1
 8000a82:	409a      	lsls	r2, r3
 8000a84:	0013      	movs	r3, r2
 8000a86:	693a      	ldr	r2, [r7, #16]
 8000a88:	4313      	orrs	r3, r2
 8000a8a:	613b      	str	r3, [r7, #16]
      GPIOx->MODER = temp;
 8000a8c:	687b      	ldr	r3, [r7, #4]
 8000a8e:	693a      	ldr	r2, [r7, #16]
 8000a90:	601a      	str	r2, [r3, #0]

      /*--------------------- EXTI Mode Configuration ------------------------*/
      /* Configure the External Interrupt or event for the current IO */
      if ((GPIO_Init->Mode & EXTI_MODE) != 0x00u)
 8000a92:	683b      	ldr	r3, [r7, #0]
 8000a94:	685a      	ldr	r2, [r3, #4]
 8000a96:	23c0      	movs	r3, #192	@ 0xc0
 8000a98:	029b      	lsls	r3, r3, #10
 8000a9a:	4013      	ands	r3, r2
 8000a9c:	d100      	bne.n	8000aa0 <HAL_GPIO_Init+0x174>
 8000a9e:	e092      	b.n	8000bc6 <HAL_GPIO_Init+0x29a>
      {
        temp = EXTI->EXTICR[position >> 2u];
 8000aa0:	4a50      	ldr	r2, [pc, #320]	@ (8000be4 <HAL_GPIO_Init+0x2b8>)
 8000aa2:	697b      	ldr	r3, [r7, #20]
 8000aa4:	089b      	lsrs	r3, r3, #2
 8000aa6:	3318      	adds	r3, #24
 8000aa8:	009b      	lsls	r3, r3, #2
 8000aaa:	589b      	ldr	r3, [r3, r2]
 8000aac:	613b      	str	r3, [r7, #16]
        temp &= ~(0x0FuL << (8u * (position & 0x03u)));
 8000aae:	697b      	ldr	r3, [r7, #20]
 8000ab0:	2203      	movs	r2, #3
 8000ab2:	4013      	ands	r3, r2
 8000ab4:	00db      	lsls	r3, r3, #3
 8000ab6:	220f      	movs	r2, #15
 8000ab8:	409a      	lsls	r2, r3
 8000aba:	0013      	movs	r3, r2
 8000abc:	43da      	mvns	r2, r3
 8000abe:	693b      	ldr	r3, [r7, #16]
 8000ac0:	4013      	ands	r3, r2
 8000ac2:	613b      	str	r3, [r7, #16]
        temp |= (GPIO_GET_INDEX(GPIOx) << (8u * (position & 0x03u)));
 8000ac4:	687a      	ldr	r2, [r7, #4]
 8000ac6:	23a0      	movs	r3, #160	@ 0xa0
 8000ac8:	05db      	lsls	r3, r3, #23
 8000aca:	429a      	cmp	r2, r3
 8000acc:	d013      	beq.n	8000af6 <HAL_GPIO_Init+0x1ca>
 8000ace:	687b      	ldr	r3, [r7, #4]
 8000ad0:	4a45      	ldr	r2, [pc, #276]	@ (8000be8 <HAL_GPIO_Init+0x2bc>)
 8000ad2:	4293      	cmp	r3, r2
 8000ad4:	d00d      	beq.n	8000af2 <HAL_GPIO_Init+0x1c6>
 8000ad6:	687b      	ldr	r3, [r7, #4]
 8000ad8:	4a44      	ldr	r2, [pc, #272]	@ (8000bec <HAL_GPIO_Init+0x2c0>)
 8000ada:	4293      	cmp	r3, r2
 8000adc:	d007      	beq.n	8000aee <HAL_GPIO_Init+0x1c2>
 8000ade:	687b      	ldr	r3, [r7, #4]
 8000ae0:	4a43      	ldr	r2, [pc, #268]	@ (8000bf0 <HAL_GPIO_Init+0x2c4>)
 8000ae2:	4293      	cmp	r3, r2
 8000ae4:	d101      	bne.n	8000aea <HAL_GPIO_Init+0x1be>
 8000ae6:	2303      	movs	r3, #3
 8000ae8:	e006      	b.n	8000af8 <HAL_GPIO_Init+0x1cc>
 8000aea:	2305      	movs	r3, #5
 8000aec:	e004      	b.n	8000af8 <HAL_GPIO_Init+0x1cc>
 8000aee:	2302      	movs	r3, #2
 8000af0:	e002      	b.n	8000af8 <HAL_GPIO_Init+0x1cc>
 8000af2:	2301      	movs	r3, #1
 8000af4:	e000      	b.n	8000af8 <HAL_GPIO_Init+0x1cc>
 8000af6:	2300      	movs	r3, #0
 8000af8:	697a      	ldr	r2, [r7, #20]
 8000afa:	2103      	movs	r1, #3
 8000afc:	400a      	ands	r2, r1
 8000afe:	00d2      	lsls	r2, r2, #3
 8000b00:	4093      	lsls	r3, r2
 8000b02:	693a      	ldr	r2, [r7, #16]
 8000b04:	4313      	orrs	r3, r2
 8000b06:	613b      	str	r3, [r7, #16]
        EXTI->EXTICR[position >> 2u] = temp;
 8000b08:	4936      	ldr	r1, [pc, #216]	@ (8000be4 <HAL_GPIO_Init+0x2b8>)
 8000b0a:	697b      	ldr	r3, [r7, #20]
 8000b0c:	089b      	lsrs	r3, r3, #2
 8000b0e:	3318      	adds	r3, #24
 8000b10:	009b      	lsls	r3, r3, #2
 8000b12:	693a      	ldr	r2, [r7, #16]
 8000b14:	505a      	str	r2, [r3, r1]

        /* Clear Rising Falling edge configuration */
        temp = EXTI->RTSR1;
 8000b16:	4b33      	ldr	r3, [pc, #204]	@ (8000be4 <HAL_GPIO_Init+0x2b8>)
 8000b18:	681b      	ldr	r3, [r3, #0]
 8000b1a:	613b      	str	r3, [r7, #16]
        temp &= ~(iocurrent);
 8000b1c:	68fb      	ldr	r3, [r7, #12]
 8000b1e:	43da      	mvns	r2, r3
 8000b20:	693b      	ldr	r3, [r7, #16]
 8000b22:	4013      	ands	r3, r2
 8000b24:	613b      	str	r3, [r7, #16]
        if ((GPIO_Init->Mode & TRIGGER_RISING) != 0x00u)
 8000b26:	683b      	ldr	r3, [r7, #0]
 8000b28:	685a      	ldr	r2, [r3, #4]
 8000b2a:	2380      	movs	r3, #128	@ 0x80
 8000b2c:	035b      	lsls	r3, r3, #13
 8000b2e:	4013      	ands	r3, r2
 8000b30:	d003      	beq.n	8000b3a <HAL_GPIO_Init+0x20e>
        {
          temp |= iocurrent;
 8000b32:	693a      	ldr	r2, [r7, #16]
 8000b34:	68fb      	ldr	r3, [r7, #12]
 8000b36:	4313      	orrs	r3, r2
 8000b38:	613b      	str	r3, [r7, #16]
        }
        EXTI->RTSR1 = temp;
 8000b3a:	4b2a      	ldr	r3, [pc, #168]	@ (8000be4 <HAL_GPIO_Init+0x2b8>)
 8000b3c:	693a      	ldr	r2, [r7, #16]
 8000b3e:	601a      	str	r2, [r3, #0]

        temp = EXTI->FTSR1;
 8000b40:	4b28      	ldr	r3, [pc, #160]	@ (8000be4 <HAL_GPIO_Init+0x2b8>)
 8000b42:	685b      	ldr	r3, [r3, #4]
 8000b44:	613b      	str	r3, [r7, #16]
        temp &= ~(iocurrent);
 8000b46:	68fb      	ldr	r3, [r7, #12]
 8000b48:	43da      	mvns	r2, r3
 8000b4a:	693b      	ldr	r3, [r7, #16]
 8000b4c:	4013      	ands	r3, r2
 8000b4e:	613b      	str	r3, [r7, #16]
        if ((GPIO_Init->Mode & TRIGGER_FALLING) != 0x00u)
 8000b50:	683b      	ldr	r3, [r7, #0]
 8000b52:	685a      	ldr	r2, [r3, #4]
 8000b54:	2380      	movs	r3, #128	@ 0x80
 8000b56:	039b      	lsls	r3, r3, #14
 8000b58:	4013      	ands	r3, r2
 8000b5a:	d003      	beq.n	8000b64 <HAL_GPIO_Init+0x238>
        {
          temp |= iocurrent;
 8000b5c:	693a      	ldr	r2, [r7, #16]
 8000b5e:	68fb      	ldr	r3, [r7, #12]
 8000b60:	4313      	orrs	r3, r2
 8000b62:	613b      	str	r3, [r7, #16]
        }
        EXTI->FTSR1 = temp;
 8000b64:	4b1f      	ldr	r3, [pc, #124]	@ (8000be4 <HAL_GPIO_Init+0x2b8>)
 8000b66:	693a      	ldr	r2, [r7, #16]
 8000b68:	605a      	str	r2, [r3, #4]

        /* Clear EXTI line configuration */
        temp = EXTI->EMR1;
 8000b6a:	4a1e      	ldr	r2, [pc, #120]	@ (8000be4 <HAL_GPIO_Init+0x2b8>)
 8000b6c:	2384      	movs	r3, #132	@ 0x84
 8000b6e:	58d3      	ldr	r3, [r2, r3]
 8000b70:	613b      	str	r3, [r7, #16]
        temp &= ~(iocurrent);
 8000b72:	68fb      	ldr	r3, [r7, #12]
 8000b74:	43da      	mvns	r2, r3
 8000b76:	693b      	ldr	r3, [r7, #16]
 8000b78:	4013      	ands	r3, r2
 8000b7a:	613b      	str	r3, [r7, #16]
        if ((GPIO_Init->Mode & EXTI_EVT) != 0x00u)
 8000b7c:	683b      	ldr	r3, [r7, #0]
 8000b7e:	685a      	ldr	r2, [r3, #4]
 8000b80:	2380      	movs	r3, #128	@ 0x80
 8000b82:	029b      	lsls	r3, r3, #10
 8000b84:	4013      	ands	r3, r2
 8000b86:	d003      	beq.n	8000b90 <HAL_GPIO_Init+0x264>
        {
          temp |= iocurrent;
 8000b88:	693a      	ldr	r2, [r7, #16]
 8000b8a:	68fb      	ldr	r3, [r7, #12]
 8000b8c:	4313      	orrs	r3, r2
 8000b8e:	613b      	str	r3, [r7, #16]
        }
        EXTI->EMR1 = temp;
 8000b90:	4914      	ldr	r1, [pc, #80]	@ (8000be4 <HAL_GPIO_Init+0x2b8>)
 8000b92:	2284      	movs	r2, #132	@ 0x84
 8000b94:	693b      	ldr	r3, [r7, #16]
 8000b96:	508b      	str	r3, [r1, r2]

        temp = EXTI->IMR1;
 8000b98:	4a12      	ldr	r2, [pc, #72]	@ (8000be4 <HAL_GPIO_Init+0x2b8>)
 8000b9a:	2380      	movs	r3, #128	@ 0x80
 8000b9c:	58d3      	ldr	r3, [r2, r3]
 8000b9e:	613b      	str	r3, [r7, #16]
        temp &= ~(iocurrent);
 8000ba0:	68fb      	ldr	r3, [r7, #12]
 8000ba2:	43da      	mvns	r2, r3
 8000ba4:	693b      	ldr	r3, [r7, #16]
 8000ba6:	4013      	ands	r3, r2
 8000ba8:	613b      	str	r3, [r7, #16]
        if ((GPIO_Init->Mode & EXTI_IT) != 0x00u)
 8000baa:	683b      	ldr	r3, [r7, #0]
 8000bac:	685a      	ldr	r2, [r3, #4]
 8000bae:	2380      	movs	r3, #128	@ 0x80
 8000bb0:	025b      	lsls	r3, r3, #9
 8000bb2:	4013      	ands	r3, r2
 8000bb4:	d003      	beq.n	8000bbe <HAL_GPIO_Init+0x292>
        {
          temp |= iocurrent;
 8000bb6:	693a      	ldr	r2, [r7, #16]
 8000bb8:	68fb      	ldr	r3, [r7, #12]
 8000bba:	4313      	orrs	r3, r2
 8000bbc:	613b      	str	r3, [r7, #16]
        }
        EXTI->IMR1 = temp;
 8000bbe:	4909      	ldr	r1, [pc, #36]	@ (8000be4 <HAL_GPIO_Init+0x2b8>)
 8000bc0:	2280      	movs	r2, #128	@ 0x80
 8000bc2:	693b      	ldr	r3, [r7, #16]
 8000bc4:	508b      	str	r3, [r1, r2]
      }
    }

    position++;
 8000bc6:	697b      	ldr	r3, [r7, #20]
 8000bc8:	3301      	adds	r3, #1
 8000bca:	617b      	str	r3, [r7, #20]
  while (((GPIO_Init->Pin) >> position) != 0x00u)
 8000bcc:	683b      	ldr	r3, [r7, #0]
 8000bce:	681a      	ldr	r2, [r3, #0]
 8000bd0:	697b      	ldr	r3, [r7, #20]
 8000bd2:	40da      	lsrs	r2, r3
 8000bd4:	1e13      	subs	r3, r2, #0
 8000bd6:	d000      	beq.n	8000bda <HAL_GPIO_Init+0x2ae>
 8000bd8:	e6b0      	b.n	800093c <HAL_GPIO_Init+0x10>
  }
}
 8000bda:	46c0      	nop			@ (mov r8, r8)
 8000bdc:	46c0      	nop			@ (mov r8, r8)
 8000bde:	46bd      	mov	sp, r7
 8000be0:	b006      	add	sp, #24
 8000be2:	bd80      	pop	{r7, pc}
 8000be4:	40021800 	.word	0x40021800
 8000be8:	50000400 	.word	0x50000400
 8000bec:	50000800 	.word	0x50000800
 8000bf0:	50000c00 	.word	0x50000c00

08000bf4 <HAL_GPIO_WritePin>:
  *            @arg GPIO_PIN_RESET: to clear the port pin
  *            @arg GPIO_PIN_SET: to set the port pin
  * @retval None
  */
void HAL_GPIO_WritePin(GPIO_TypeDef *GPIOx, uint16_t GPIO_Pin, GPIO_PinState PinState)
{
 8000bf4:	b580      	push	{r7, lr}
 8000bf6:	b082      	sub	sp, #8
 8000bf8:	af00      	add	r7, sp, #0
 8000bfa:	6078      	str	r0, [r7, #4]
 8000bfc:	0008      	movs	r0, r1
 8000bfe:	0011      	movs	r1, r2
 8000c00:	1cbb      	adds	r3, r7, #2
 8000c02:	1c02      	adds	r2, r0, #0
 8000c04:	801a      	strh	r2, [r3, #0]
 8000c06:	1c7b      	adds	r3, r7, #1
 8000c08:	1c0a      	adds	r2, r1, #0
 8000c0a:	701a      	strb	r2, [r3, #0]
  /* Check the parameters */
  assert_param(IS_GPIO_PIN(GPIO_Pin));
  assert_param(IS_GPIO_PIN_ACTION(PinState));

  if (PinState != GPIO_PIN_RESET)
 8000c0c:	1c7b      	adds	r3, r7, #1
 8000c0e:	781b      	ldrb	r3, [r3, #0]
 8000c10:	2b00      	cmp	r3, #0
 8000c12:	d004      	beq.n	8000c1e <HAL_GPIO_WritePin+0x2a>
  {
    GPIOx->BSRR = (uint32_t)GPIO_Pin;
 8000c14:	1cbb      	adds	r3, r7, #2
 8000c16:	881a      	ldrh	r2, [r3, #0]
 8000c18:	687b      	ldr	r3, [r7, #4]
 8000c1a:	619a      	str	r2, [r3, #24]
  }
  else
  {
    GPIOx->BRR = (uint32_t)GPIO_Pin;
  }
}
 8000c1c:	e003      	b.n	8000c26 <HAL_GPIO_WritePin+0x32>
    GPIOx->BRR = (uint32_t)GPIO_Pin;
 8000c1e:	1cbb      	adds	r3, r7, #2
 8000c20:	881a      	ldrh	r2, [r3, #0]
 8000c22:	687b      	ldr	r3, [r7, #4]
 8000c24:	629a      	str	r2, [r3, #40]	@ 0x28
}
 8000c26:	46c0      	nop			@ (mov r8, r8)
 8000c28:	46bd      	mov	sp, r7
 8000c2a:	b002      	add	sp, #8
 8000c2c:	bd80      	pop	{r7, pc}

08000c2e <HAL_GPIO_TogglePin>:
  * @param  GPIO_Pin specifies the pin to be toggled.
  *         This parameter can be any combination of GPIO_Pin_x where x can be (0..15).
  * @retval None
  */
void HAL_GPIO_TogglePin(GPIO_TypeDef *GPIOx, uint16_t GPIO_Pin)
{
 8000c2e:	b580      	push	{r7, lr}
 8000c30:	b084      	sub	sp, #16
 8000c32:	af00      	add	r7, sp, #0
 8000c34:	6078      	str	r0, [r7, #4]
 8000c36:	000a      	movs	r2, r1
 8000c38:	1cbb      	adds	r3, r7, #2
 8000c3a:	801a      	strh	r2, [r3, #0]

  /* Check the parameters */
  assert_param(IS_GPIO_PIN(GPIO_Pin));

  /* get current Output Data Register value */
  odr = GPIOx->ODR;
 8000c3c:	687b      	ldr	r3, [r7, #4]
 8000c3e:	695b      	ldr	r3, [r3, #20]
 8000c40:	60fb      	str	r3, [r7, #12]

  /* Set selected pins that were at low level, and reset ones that were high */
  GPIOx->BSRR = ((odr & GPIO_Pin) << GPIO_NUMBER) | (~odr & GPIO_Pin);
 8000c42:	1cbb      	adds	r3, r7, #2
 8000c44:	881b      	ldrh	r3, [r3, #0]
 8000c46:	68fa      	ldr	r2, [r7, #12]
 8000c48:	4013      	ands	r3, r2
 8000c4a:	041a      	lsls	r2, r3, #16
 8000c4c:	68fb      	ldr	r3, [r7, #12]
 8000c4e:	43db      	mvns	r3, r3
 8000c50:	1cb9      	adds	r1, r7, #2
 8000c52:	8809      	ldrh	r1, [r1, #0]
 8000c54:	400b      	ands	r3, r1
 8000c56:	431a      	orrs	r2, r3
 8000c58:	687b      	ldr	r3, [r7, #4]
 8000c5a:	619a      	str	r2, [r3, #24]
}
 8000c5c:	46c0      	nop			@ (mov r8, r8)
 8000c5e:	46bd      	mov	sp, r7
 8000c60:	b004      	add	sp, #16
 8000c62:	bd80      	pop	{r7, pc}

08000c64 <HAL_PWREx_ControlVoltageScaling>:
  *        cleared before returning the status. If the flag is not cleared within
  *        6 microseconds, HAL_TIMEOUT status is reported.
  * @retval HAL Status
  */
HAL_StatusTypeDef HAL_PWREx_ControlVoltageScaling(uint32_t VoltageScaling)
{
 8000c64:	b580      	push	{r7, lr}
 8000c66:	b084      	sub	sp, #16
 8000c68:	af00      	add	r7, sp, #0
 8000c6a:	6078      	str	r0, [r7, #4]
  uint32_t wait_loop_index;

  assert_param(IS_PWR_VOLTAGE_SCALING_RANGE(VoltageScaling));

  /* Modify voltage scaling range */
  MODIFY_REG(PWR->CR1, PWR_CR1_VOS, VoltageScaling);
 8000c6c:	4b19      	ldr	r3, [pc, #100]	@ (8000cd4 <HAL_PWREx_ControlVoltageScaling+0x70>)
 8000c6e:	681b      	ldr	r3, [r3, #0]
 8000c70:	4a19      	ldr	r2, [pc, #100]	@ (8000cd8 <HAL_PWREx_ControlVoltageScaling+0x74>)
 8000c72:	4013      	ands	r3, r2
 8000c74:	0019      	movs	r1, r3
 8000c76:	4b17      	ldr	r3, [pc, #92]	@ (8000cd4 <HAL_PWREx_ControlVoltageScaling+0x70>)
 8000c78:	687a      	ldr	r2, [r7, #4]
 8000c7a:	430a      	orrs	r2, r1
 8000c7c:	601a      	str	r2, [r3, #0]

  /* In case of Range 1 selected, we need to ensure that main regulator reaches new value */
  if (VoltageScaling == PWR_REGULATOR_VOLTAGE_SCALE1)
 8000c7e:	687a      	ldr	r2, [r7, #4]
 8000c80:	2380      	movs	r3, #128	@ 0x80
 8000c82:	009b      	lsls	r3, r3, #2
 8000c84:	429a      	cmp	r2, r3
 8000c86:	d11f      	bne.n	8000cc8 <HAL_PWREx_ControlVoltageScaling+0x64>
  {
    /* Set timeout value */
    wait_loop_index = ((PWR_VOSF_SETTING_DELAY_6_US * SystemCoreClock) / 1000000U) + 1U;
 8000c88:	4b14      	ldr	r3, [pc, #80]	@ (8000cdc <HAL_PWREx_ControlVoltageScaling+0x78>)
 8000c8a:	681a      	ldr	r2, [r3, #0]
 8000c8c:	0013      	movs	r3, r2
 8000c8e:	005b      	lsls	r3, r3, #1
 8000c90:	189b      	adds	r3, r3, r2
 8000c92:	005b      	lsls	r3, r3, #1
 8000c94:	4912      	ldr	r1, [pc, #72]	@ (8000ce0 <HAL_PWREx_ControlVoltageScaling+0x7c>)
 8000c96:	0018      	movs	r0, r3
 8000c98:	f7ff fa32 	bl	8000100 <__udivsi3>
 8000c9c:	0003      	movs	r3, r0
 8000c9e:	3301      	adds	r3, #1
 8000ca0:	60fb      	str	r3, [r7, #12]

    /* Wait until VOSF is reset */
    while (HAL_IS_BIT_SET(PWR->SR2, PWR_SR2_VOSF))
 8000ca2:	e008      	b.n	8000cb6 <HAL_PWREx_ControlVoltageScaling+0x52>
    {
      if (wait_loop_index != 0U)
 8000ca4:	68fb      	ldr	r3, [r7, #12]
 8000ca6:	2b00      	cmp	r3, #0
 8000ca8:	d003      	beq.n	8000cb2 <HAL_PWREx_ControlVoltageScaling+0x4e>
      {
        wait_loop_index--;
 8000caa:	68fb      	ldr	r3, [r7, #12]
 8000cac:	3b01      	subs	r3, #1
 8000cae:	60fb      	str	r3, [r7, #12]
 8000cb0:	e001      	b.n	8000cb6 <HAL_PWREx_ControlVoltageScaling+0x52>
      }
      else
      {
        return HAL_TIMEOUT;
 8000cb2:	2303      	movs	r3, #3
 8000cb4:	e009      	b.n	8000cca <HAL_PWREx_ControlVoltageScaling+0x66>
    while (HAL_IS_BIT_SET(PWR->SR2, PWR_SR2_VOSF))
 8000cb6:	4b07      	ldr	r3, [pc, #28]	@ (8000cd4 <HAL_PWREx_ControlVoltageScaling+0x70>)
 8000cb8:	695a      	ldr	r2, [r3, #20]
 8000cba:	2380      	movs	r3, #128	@ 0x80
 8000cbc:	00db      	lsls	r3, r3, #3
 8000cbe:	401a      	ands	r2, r3
 8000cc0:	2380      	movs	r3, #128	@ 0x80
 8000cc2:	00db      	lsls	r3, r3, #3
 8000cc4:	429a      	cmp	r2, r3
 8000cc6:	d0ed      	beq.n	8000ca4 <HAL_PWREx_ControlVoltageScaling+0x40>
      }
    }
  }

  return HAL_OK;
 8000cc8:	2300      	movs	r3, #0
}
 8000cca:	0018      	movs	r0, r3
 8000ccc:	46bd      	mov	sp, r7
 8000cce:	b004      	add	sp, #16
 8000cd0:	bd80      	pop	{r7, pc}
 8000cd2:	46c0      	nop			@ (mov r8, r8)
 8000cd4:	40007000 	.word	0x40007000
 8000cd8:	fffff9ff 	.word	0xfffff9ff
 8000cdc:	20000000 	.word	0x20000000
 8000ce0:	000f4240 	.word	0x000f4240

08000ce4 <HAL_RCC_OscConfig>:
  *         supported by this function. User should request a transition to LSE Off
  *         first and then to LSE On or LSE Bypass.
  * @retval HAL status
  */
HAL_StatusTypeDef HAL_RCC_OscConfig(RCC_OscInitTypeDef  *RCC_OscInitStruct)
{
 8000ce4:	b580      	push	{r7, lr}
 8000ce6:	b088      	sub	sp, #32
 8000ce8:	af00      	add	r7, sp, #0
 8000cea:	6078      	str	r0, [r7, #4]
  uint32_t tickstart;
  uint32_t temp_sysclksrc;
  uint32_t temp_pllckcfg;

  /* Check Null pointer */
  if (RCC_OscInitStruct == NULL)
 8000cec:	687b      	ldr	r3, [r7, #4]
 8000cee:	2b00      	cmp	r3, #0
 8000cf0:	d101      	bne.n	8000cf6 <HAL_RCC_OscConfig+0x12>
  {
    return HAL_ERROR;
 8000cf2:	2301      	movs	r3, #1
 8000cf4:	e2f3      	b.n	80012de <HAL_RCC_OscConfig+0x5fa>

  /* Check the parameters */
  assert_param(IS_RCC_OSCILLATORTYPE(RCC_OscInitStruct->OscillatorType));

  /*------------------------------- HSE Configuration ------------------------*/
  if (((RCC_OscInitStruct->OscillatorType) & RCC_OSCILLATORTYPE_HSE) == RCC_OSCILLATORTYPE_HSE)
 8000cf6:	687b      	ldr	r3, [r7, #4]
 8000cf8:	681b      	ldr	r3, [r3, #0]
 8000cfa:	2201      	movs	r2, #1
 8000cfc:	4013      	ands	r3, r2
 8000cfe:	d100      	bne.n	8000d02 <HAL_RCC_OscConfig+0x1e>
 8000d00:	e07c      	b.n	8000dfc <HAL_RCC_OscConfig+0x118>
  {
    /* Check the parameters */
    assert_param(IS_RCC_HSE(RCC_OscInitStruct->HSEState));

    temp_sysclksrc = __HAL_RCC_GET_SYSCLK_SOURCE();
 8000d02:	4bc3      	ldr	r3, [pc, #780]	@ (8001010 <HAL_RCC_OscConfig+0x32c>)
 8000d04:	689b      	ldr	r3, [r3, #8]
 8000d06:	2238      	movs	r2, #56	@ 0x38
 8000d08:	4013      	ands	r3, r2
 8000d0a:	61bb      	str	r3, [r7, #24]
    temp_pllckcfg = __HAL_RCC_GET_PLL_OSCSOURCE();
 8000d0c:	4bc0      	ldr	r3, [pc, #768]	@ (8001010 <HAL_RCC_OscConfig+0x32c>)
 8000d0e:	68db      	ldr	r3, [r3, #12]
 8000d10:	2203      	movs	r2, #3
 8000d12:	4013      	ands	r3, r2
 8000d14:	617b      	str	r3, [r7, #20]

    /* When the HSE is used as system clock or clock source for PLL in these cases it is not allowed to be disabled */
    if (((temp_sysclksrc == RCC_SYSCLKSOURCE_STATUS_PLLCLK) && (temp_pllckcfg == RCC_PLLSOURCE_HSE))
 8000d16:	69bb      	ldr	r3, [r7, #24]
 8000d18:	2b10      	cmp	r3, #16
 8000d1a:	d102      	bne.n	8000d22 <HAL_RCC_OscConfig+0x3e>
 8000d1c:	697b      	ldr	r3, [r7, #20]
 8000d1e:	2b03      	cmp	r3, #3
 8000d20:	d002      	beq.n	8000d28 <HAL_RCC_OscConfig+0x44>
        || (temp_sysclksrc == RCC_SYSCLKSOURCE_STATUS_HSE))
 8000d22:	69bb      	ldr	r3, [r7, #24]
 8000d24:	2b08      	cmp	r3, #8
 8000d26:	d10b      	bne.n	8000d40 <HAL_RCC_OscConfig+0x5c>
    {
      if ((READ_BIT(RCC->CR, RCC_CR_HSERDY) != 0U) && (RCC_OscInitStruct->HSEState == RCC_HSE_OFF))
 8000d28:	4bb9      	ldr	r3, [pc, #740]	@ (8001010 <HAL_RCC_OscConfig+0x32c>)
 8000d2a:	681a      	ldr	r2, [r3, #0]
 8000d2c:	2380      	movs	r3, #128	@ 0x80
 8000d2e:	029b      	lsls	r3, r3, #10
 8000d30:	4013      	ands	r3, r2
 8000d32:	d062      	beq.n	8000dfa <HAL_RCC_OscConfig+0x116>
 8000d34:	687b      	ldr	r3, [r7, #4]
 8000d36:	685b      	ldr	r3, [r3, #4]
 8000d38:	2b00      	cmp	r3, #0
 8000d3a:	d15e      	bne.n	8000dfa <HAL_RCC_OscConfig+0x116>
      {
        return HAL_ERROR;
 8000d3c:	2301      	movs	r3, #1
 8000d3e:	e2ce      	b.n	80012de <HAL_RCC_OscConfig+0x5fa>
      }
    }
    else
    {
      /* Set the new HSE configuration ---------------------------------------*/
      __HAL_RCC_HSE_CONFIG(RCC_OscInitStruct->HSEState);
 8000d40:	687b      	ldr	r3, [r7, #4]
 8000d42:	685a      	ldr	r2, [r3, #4]
 8000d44:	2380      	movs	r3, #128	@ 0x80
 8000d46:	025b      	lsls	r3, r3, #9
 8000d48:	429a      	cmp	r2, r3
 8000d4a:	d107      	bne.n	8000d5c <HAL_RCC_OscConfig+0x78>
 8000d4c:	4bb0      	ldr	r3, [pc, #704]	@ (8001010 <HAL_RCC_OscConfig+0x32c>)
 8000d4e:	681a      	ldr	r2, [r3, #0]
 8000d50:	4baf      	ldr	r3, [pc, #700]	@ (8001010 <HAL_RCC_OscConfig+0x32c>)
 8000d52:	2180      	movs	r1, #128	@ 0x80
 8000d54:	0249      	lsls	r1, r1, #9
 8000d56:	430a      	orrs	r2, r1
 8000d58:	601a      	str	r2, [r3, #0]
 8000d5a:	e020      	b.n	8000d9e <HAL_RCC_OscConfig+0xba>
 8000d5c:	687b      	ldr	r3, [r7, #4]
 8000d5e:	685a      	ldr	r2, [r3, #4]
 8000d60:	23a0      	movs	r3, #160	@ 0xa0
 8000d62:	02db      	lsls	r3, r3, #11
 8000d64:	429a      	cmp	r2, r3
 8000d66:	d10e      	bne.n	8000d86 <HAL_RCC_OscConfig+0xa2>
 8000d68:	4ba9      	ldr	r3, [pc, #676]	@ (8001010 <HAL_RCC_OscConfig+0x32c>)
 8000d6a:	681a      	ldr	r2, [r3, #0]
 8000d6c:	4ba8      	ldr	r3, [pc, #672]	@ (8001010 <HAL_RCC_OscConfig+0x32c>)
 8000d6e:	2180      	movs	r1, #128	@ 0x80
 8000d70:	02c9      	lsls	r1, r1, #11
 8000d72:	430a      	orrs	r2, r1
 8000d74:	601a      	str	r2, [r3, #0]
 8000d76:	4ba6      	ldr	r3, [pc, #664]	@ (8001010 <HAL_RCC_OscConfig+0x32c>)
 8000d78:	681a      	ldr	r2, [r3, #0]
 8000d7a:	4ba5      	ldr	r3, [pc, #660]	@ (8001010 <HAL_RCC_OscConfig+0x32c>)
 8000d7c:	2180      	movs	r1, #128	@ 0x80
 8000d7e:	0249      	lsls	r1, r1, #9
 8000d80:	430a      	orrs	r2, r1
 8000d82:	601a      	str	r2, [r3, #0]
 8000d84:	e00b      	b.n	8000d9e <HAL_RCC_OscConfig+0xba>
 8000d86:	4ba2      	ldr	r3, [pc, #648]	@ (8001010 <HAL_RCC_OscConfig+0x32c>)
 8000d88:	681a      	ldr	r2, [r3, #0]
 8000d8a:	4ba1      	ldr	r3, [pc, #644]	@ (8001010 <HAL_RCC_OscConfig+0x32c>)
 8000d8c:	49a1      	ldr	r1, [pc, #644]	@ (8001014 <HAL_RCC_OscConfig+0x330>)
 8000d8e:	400a      	ands	r2, r1
 8000d90:	601a      	str	r2, [r3, #0]
 8000d92:	4b9f      	ldr	r3, [pc, #636]	@ (8001010 <HAL_RCC_OscConfig+0x32c>)
 8000d94:	681a      	ldr	r2, [r3, #0]
 8000d96:	4b9e      	ldr	r3, [pc, #632]	@ (8001010 <HAL_RCC_OscConfig+0x32c>)
 8000d98:	499f      	ldr	r1, [pc, #636]	@ (8001018 <HAL_RCC_OscConfig+0x334>)
 8000d9a:	400a      	ands	r2, r1
 8000d9c:	601a      	str	r2, [r3, #0]

      /* Check the HSE State */
      if (RCC_OscInitStruct->HSEState != RCC_HSE_OFF)
 8000d9e:	687b      	ldr	r3, [r7, #4]
 8000da0:	685b      	ldr	r3, [r3, #4]
 8000da2:	2b00      	cmp	r3, #0
 8000da4:	d014      	beq.n	8000dd0 <HAL_RCC_OscConfig+0xec>
      {
        /* Get Start Tick*/
        tickstart = HAL_GetTick();
 8000da6:	f7ff fcd9 	bl	800075c <HAL_GetTick>
 8000daa:	0003      	movs	r3, r0
 8000dac:	613b      	str	r3, [r7, #16]

        /* Wait till HSE is ready */
        while (READ_BIT(RCC->CR, RCC_CR_HSERDY) == 0U)
 8000dae:	e008      	b.n	8000dc2 <HAL_RCC_OscConfig+0xde>
        {
          if ((HAL_GetTick() - tickstart) > HSE_TIMEOUT_VALUE)
 8000db0:	f7ff fcd4 	bl	800075c <HAL_GetTick>
 8000db4:	0002      	movs	r2, r0
 8000db6:	693b      	ldr	r3, [r7, #16]
 8000db8:	1ad3      	subs	r3, r2, r3
 8000dba:	2b64      	cmp	r3, #100	@ 0x64
 8000dbc:	d901      	bls.n	8000dc2 <HAL_RCC_OscConfig+0xde>
          {
            return HAL_TIMEOUT;
 8000dbe:	2303      	movs	r3, #3
 8000dc0:	e28d      	b.n	80012de <HAL_RCC_OscConfig+0x5fa>
        while (READ_BIT(RCC->CR, RCC_CR_HSERDY) == 0U)
 8000dc2:	4b93      	ldr	r3, [pc, #588]	@ (8001010 <HAL_RCC_OscConfig+0x32c>)
 8000dc4:	681a      	ldr	r2, [r3, #0]
 8000dc6:	2380      	movs	r3, #128	@ 0x80
 8000dc8:	029b      	lsls	r3, r3, #10
 8000dca:	4013      	ands	r3, r2
 8000dcc:	d0f0      	beq.n	8000db0 <HAL_RCC_OscConfig+0xcc>
 8000dce:	e015      	b.n	8000dfc <HAL_RCC_OscConfig+0x118>
        }
      }
      else
      {
        /* Get Start Tick*/
        tickstart = HAL_GetTick();
 8000dd0:	f7ff fcc4 	bl	800075c <HAL_GetTick>
 8000dd4:	0003      	movs	r3, r0
 8000dd6:	613b      	str	r3, [r7, #16]

        /* Wait till HSE is disabled */
        while (READ_BIT(RCC->CR, RCC_CR_HSERDY) != 0U)
 8000dd8:	e008      	b.n	8000dec <HAL_RCC_OscConfig+0x108>
        {
          if ((HAL_GetTick() - tickstart) > HSE_TIMEOUT_VALUE)
 8000dda:	f7ff fcbf 	bl	800075c <HAL_GetTick>
 8000dde:	0002      	movs	r2, r0
 8000de0:	693b      	ldr	r3, [r7, #16]
 8000de2:	1ad3      	subs	r3, r2, r3
 8000de4:	2b64      	cmp	r3, #100	@ 0x64
 8000de6:	d901      	bls.n	8000dec <HAL_RCC_OscConfig+0x108>
          {
            return HAL_TIMEOUT;
 8000de8:	2303      	movs	r3, #3
 8000dea:	e278      	b.n	80012de <HAL_RCC_OscConfig+0x5fa>
        while (READ_BIT(RCC->CR, RCC_CR_HSERDY) != 0U)
 8000dec:	4b88      	ldr	r3, [pc, #544]	@ (8001010 <HAL_RCC_OscConfig+0x32c>)
 8000dee:	681a      	ldr	r2, [r3, #0]
 8000df0:	2380      	movs	r3, #128	@ 0x80
 8000df2:	029b      	lsls	r3, r3, #10
 8000df4:	4013      	ands	r3, r2
 8000df6:	d1f0      	bne.n	8000dda <HAL_RCC_OscConfig+0xf6>
 8000df8:	e000      	b.n	8000dfc <HAL_RCC_OscConfig+0x118>
      if ((READ_BIT(RCC->CR, RCC_CR_HSERDY) != 0U) && (RCC_OscInitStruct->HSEState == RCC_HSE_OFF))
 8000dfa:	46c0      	nop			@ (mov r8, r8)
        }
      }
    }
  }
  /*----------------------------- HSI Configuration --------------------------*/
  if (((RCC_OscInitStruct->OscillatorType) & RCC_OSCILLATORTYPE_HSI) == RCC_OSCILLATORTYPE_HSI)
 8000dfc:	687b      	ldr	r3, [r7, #4]
 8000dfe:	681b      	ldr	r3, [r3, #0]
 8000e00:	2202      	movs	r2, #2
 8000e02:	4013      	ands	r3, r2
 8000e04:	d100      	bne.n	8000e08 <HAL_RCC_OscConfig+0x124>
 8000e06:	e099      	b.n	8000f3c <HAL_RCC_OscConfig+0x258>
    assert_param(IS_RCC_HSI(RCC_OscInitStruct->HSIState));
    assert_param(IS_RCC_HSI_CALIBRATION_VALUE(RCC_OscInitStruct->HSICalibrationValue));
    assert_param(IS_RCC_HSIDIV(RCC_OscInitStruct->HSIDiv));

    /* Check if HSI16 is used as system clock or as PLL source when PLL is selected as system clock */
    temp_sysclksrc = __HAL_RCC_GET_SYSCLK_SOURCE();
 8000e08:	4b81      	ldr	r3, [pc, #516]	@ (8001010 <HAL_RCC_OscConfig+0x32c>)
 8000e0a:	689b      	ldr	r3, [r3, #8]
 8000e0c:	2238      	movs	r2, #56	@ 0x38
 8000e0e:	4013      	ands	r3, r2
 8000e10:	61bb      	str	r3, [r7, #24]
    temp_pllckcfg = __HAL_RCC_GET_PLL_OSCSOURCE();
 8000e12:	4b7f      	ldr	r3, [pc, #508]	@ (8001010 <HAL_RCC_OscConfig+0x32c>)
 8000e14:	68db      	ldr	r3, [r3, #12]
 8000e16:	2203      	movs	r2, #3
 8000e18:	4013      	ands	r3, r2
 8000e1a:	617b      	str	r3, [r7, #20]
    if (((temp_sysclksrc == RCC_SYSCLKSOURCE_STATUS_PLLCLK) && (temp_pllckcfg == RCC_PLLSOURCE_HSI))
 8000e1c:	69bb      	ldr	r3, [r7, #24]
 8000e1e:	2b10      	cmp	r3, #16
 8000e20:	d102      	bne.n	8000e28 <HAL_RCC_OscConfig+0x144>
 8000e22:	697b      	ldr	r3, [r7, #20]
 8000e24:	2b02      	cmp	r3, #2
 8000e26:	d002      	beq.n	8000e2e <HAL_RCC_OscConfig+0x14a>
        || (temp_sysclksrc == RCC_SYSCLKSOURCE_STATUS_HSI))
 8000e28:	69bb      	ldr	r3, [r7, #24]
 8000e2a:	2b00      	cmp	r3, #0
 8000e2c:	d135      	bne.n	8000e9a <HAL_RCC_OscConfig+0x1b6>
    {
      /* When HSI is used as system clock or as PLL input clock it can not be disabled */
      if ((READ_BIT(RCC->CR, RCC_CR_HSIRDY) != 0U) && (RCC_OscInitStruct->HSIState == RCC_HSI_OFF))
 8000e2e:	4b78      	ldr	r3, [pc, #480]	@ (8001010 <HAL_RCC_OscConfig+0x32c>)
 8000e30:	681a      	ldr	r2, [r3, #0]
 8000e32:	2380      	movs	r3, #128	@ 0x80
 8000e34:	00db      	lsls	r3, r3, #3
 8000e36:	4013      	ands	r3, r2
 8000e38:	d005      	beq.n	8000e46 <HAL_RCC_OscConfig+0x162>
 8000e3a:	687b      	ldr	r3, [r7, #4]
 8000e3c:	68db      	ldr	r3, [r3, #12]
 8000e3e:	2b00      	cmp	r3, #0
 8000e40:	d101      	bne.n	8000e46 <HAL_RCC_OscConfig+0x162>
      {
        return HAL_ERROR;
 8000e42:	2301      	movs	r3, #1
 8000e44:	e24b      	b.n	80012de <HAL_RCC_OscConfig+0x5fa>
      }
      /* Otherwise, just the calibration is allowed */
      else
      {
        /* Adjusts the Internal High Speed oscillator (HSI) calibration value.*/
        __HAL_RCC_HSI_CALIBRATIONVALUE_ADJUST(RCC_OscInitStruct->HSICalibrationValue);
 8000e46:	4b72      	ldr	r3, [pc, #456]	@ (8001010 <HAL_RCC_OscConfig+0x32c>)
 8000e48:	685b      	ldr	r3, [r3, #4]
 8000e4a:	4a74      	ldr	r2, [pc, #464]	@ (800101c <HAL_RCC_OscConfig+0x338>)
 8000e4c:	4013      	ands	r3, r2
 8000e4e:	0019      	movs	r1, r3
 8000e50:	687b      	ldr	r3, [r7, #4]
 8000e52:	695b      	ldr	r3, [r3, #20]
 8000e54:	021a      	lsls	r2, r3, #8
 8000e56:	4b6e      	ldr	r3, [pc, #440]	@ (8001010 <HAL_RCC_OscConfig+0x32c>)
 8000e58:	430a      	orrs	r2, r1
 8000e5a:	605a      	str	r2, [r3, #4]

        if (temp_sysclksrc == RCC_SYSCLKSOURCE_STATUS_HSI)
 8000e5c:	69bb      	ldr	r3, [r7, #24]
 8000e5e:	2b00      	cmp	r3, #0
 8000e60:	d112      	bne.n	8000e88 <HAL_RCC_OscConfig+0x1a4>
        {
          /* Adjust the HSI16 division factor */
          __HAL_RCC_HSI_CONFIG(RCC_OscInitStruct->HSIDiv);
 8000e62:	4b6b      	ldr	r3, [pc, #428]	@ (8001010 <HAL_RCC_OscConfig+0x32c>)
 8000e64:	681b      	ldr	r3, [r3, #0]
 8000e66:	4a6e      	ldr	r2, [pc, #440]	@ (8001020 <HAL_RCC_OscConfig+0x33c>)
 8000e68:	4013      	ands	r3, r2
 8000e6a:	0019      	movs	r1, r3
 8000e6c:	687b      	ldr	r3, [r7, #4]
 8000e6e:	691a      	ldr	r2, [r3, #16]
 8000e70:	4b67      	ldr	r3, [pc, #412]	@ (8001010 <HAL_RCC_OscConfig+0x32c>)
 8000e72:	430a      	orrs	r2, r1
 8000e74:	601a      	str	r2, [r3, #0]

          /* Update the SystemCoreClock global variable with HSISYS value  */
          SystemCoreClock = (HSI_VALUE / (1UL << ((READ_BIT(RCC->CR, RCC_CR_HSIDIV)) >> RCC_CR_HSIDIV_Pos)));
 8000e76:	4b66      	ldr	r3, [pc, #408]	@ (8001010 <HAL_RCC_OscConfig+0x32c>)
 8000e78:	681b      	ldr	r3, [r3, #0]
 8000e7a:	0adb      	lsrs	r3, r3, #11
 8000e7c:	2207      	movs	r2, #7
 8000e7e:	4013      	ands	r3, r2
 8000e80:	4a68      	ldr	r2, [pc, #416]	@ (8001024 <HAL_RCC_OscConfig+0x340>)
 8000e82:	40da      	lsrs	r2, r3
 8000e84:	4b68      	ldr	r3, [pc, #416]	@ (8001028 <HAL_RCC_OscConfig+0x344>)
 8000e86:	601a      	str	r2, [r3, #0]
        }

        /* Adapt Systick interrupt period */
        if (HAL_InitTick(uwTickPrio) != HAL_OK)
 8000e88:	4b68      	ldr	r3, [pc, #416]	@ (800102c <HAL_RCC_OscConfig+0x348>)
 8000e8a:	681b      	ldr	r3, [r3, #0]
 8000e8c:	0018      	movs	r0, r3
 8000e8e:	f7ff fc09 	bl	80006a4 <HAL_InitTick>
 8000e92:	1e03      	subs	r3, r0, #0
 8000e94:	d051      	beq.n	8000f3a <HAL_RCC_OscConfig+0x256>
        {
          return HAL_ERROR;
 8000e96:	2301      	movs	r3, #1
 8000e98:	e221      	b.n	80012de <HAL_RCC_OscConfig+0x5fa>
      }
    }
    else
    {
      /* Check the HSI State */
      if (RCC_OscInitStruct->HSIState != RCC_HSI_OFF)
 8000e9a:	687b      	ldr	r3, [r7, #4]
 8000e9c:	68db      	ldr	r3, [r3, #12]
 8000e9e:	2b00      	cmp	r3, #0
 8000ea0:	d030      	beq.n	8000f04 <HAL_RCC_OscConfig+0x220>
      {
        /* Configure the HSI16 division factor */
        __HAL_RCC_HSI_CONFIG(RCC_OscInitStruct->HSIDiv);
 8000ea2:	4b5b      	ldr	r3, [pc, #364]	@ (8001010 <HAL_RCC_OscConfig+0x32c>)
 8000ea4:	681b      	ldr	r3, [r3, #0]
 8000ea6:	4a5e      	ldr	r2, [pc, #376]	@ (8001020 <HAL_RCC_OscConfig+0x33c>)
 8000ea8:	4013      	ands	r3, r2
 8000eaa:	0019      	movs	r1, r3
 8000eac:	687b      	ldr	r3, [r7, #4]
 8000eae:	691a      	ldr	r2, [r3, #16]
 8000eb0:	4b57      	ldr	r3, [pc, #348]	@ (8001010 <HAL_RCC_OscConfig+0x32c>)
 8000eb2:	430a      	orrs	r2, r1
 8000eb4:	601a      	str	r2, [r3, #0]

        /* Enable the Internal High Speed oscillator (HSI16). */
        __HAL_RCC_HSI_ENABLE();
 8000eb6:	4b56      	ldr	r3, [pc, #344]	@ (8001010 <HAL_RCC_OscConfig+0x32c>)
 8000eb8:	681a      	ldr	r2, [r3, #0]
 8000eba:	4b55      	ldr	r3, [pc, #340]	@ (8001010 <HAL_RCC_OscConfig+0x32c>)
 8000ebc:	2180      	movs	r1, #128	@ 0x80
 8000ebe:	0049      	lsls	r1, r1, #1
 8000ec0:	430a      	orrs	r2, r1
 8000ec2:	601a      	str	r2, [r3, #0]

        /* Get Start Tick*/
        tickstart = HAL_GetTick();
 8000ec4:	f7ff fc4a 	bl	800075c <HAL_GetTick>
 8000ec8:	0003      	movs	r3, r0
 8000eca:	613b      	str	r3, [r7, #16]

        /* Wait till HSI is ready */
        while (READ_BIT(RCC->CR, RCC_CR_HSIRDY) == 0U)
 8000ecc:	e008      	b.n	8000ee0 <HAL_RCC_OscConfig+0x1fc>
        {
          if ((HAL_GetTick() - tickstart) > HSI_TIMEOUT_VALUE)
 8000ece:	f7ff fc45 	bl	800075c <HAL_GetTick>
 8000ed2:	0002      	movs	r2, r0
 8000ed4:	693b      	ldr	r3, [r7, #16]
 8000ed6:	1ad3      	subs	r3, r2, r3
 8000ed8:	2b02      	cmp	r3, #2
 8000eda:	d901      	bls.n	8000ee0 <HAL_RCC_OscConfig+0x1fc>
          {
            return HAL_TIMEOUT;
 8000edc:	2303      	movs	r3, #3
 8000ede:	e1fe      	b.n	80012de <HAL_RCC_OscConfig+0x5fa>
        while (READ_BIT(RCC->CR, RCC_CR_HSIRDY) == 0U)
 8000ee0:	4b4b      	ldr	r3, [pc, #300]	@ (8001010 <HAL_RCC_OscConfig+0x32c>)
 8000ee2:	681a      	ldr	r2, [r3, #0]
 8000ee4:	2380      	movs	r3, #128	@ 0x80
 8000ee6:	00db      	lsls	r3, r3, #3
 8000ee8:	4013      	ands	r3, r2
 8000eea:	d0f0      	beq.n	8000ece <HAL_RCC_OscConfig+0x1ea>
          }
        }

        /* Adjusts the Internal High Speed oscillator (HSI) calibration value.*/
        __HAL_RCC_HSI_CALIBRATIONVALUE_ADJUST(RCC_OscInitStruct->HSICalibrationValue);
 8000eec:	4b48      	ldr	r3, [pc, #288]	@ (8001010 <HAL_RCC_OscConfig+0x32c>)
 8000eee:	685b      	ldr	r3, [r3, #4]
 8000ef0:	4a4a      	ldr	r2, [pc, #296]	@ (800101c <HAL_RCC_OscConfig+0x338>)
 8000ef2:	4013      	ands	r3, r2
 8000ef4:	0019      	movs	r1, r3
 8000ef6:	687b      	ldr	r3, [r7, #4]
 8000ef8:	695b      	ldr	r3, [r3, #20]
 8000efa:	021a      	lsls	r2, r3, #8
 8000efc:	4b44      	ldr	r3, [pc, #272]	@ (8001010 <HAL_RCC_OscConfig+0x32c>)
 8000efe:	430a      	orrs	r2, r1
 8000f00:	605a      	str	r2, [r3, #4]
 8000f02:	e01b      	b.n	8000f3c <HAL_RCC_OscConfig+0x258>
      }
      else
      {
        /* Disable the Internal High Speed oscillator (HSI16). */
        __HAL_RCC_HSI_DISABLE();
 8000f04:	4b42      	ldr	r3, [pc, #264]	@ (8001010 <HAL_RCC_OscConfig+0x32c>)
 8000f06:	681a      	ldr	r2, [r3, #0]
 8000f08:	4b41      	ldr	r3, [pc, #260]	@ (8001010 <HAL_RCC_OscConfig+0x32c>)
 8000f0a:	4949      	ldr	r1, [pc, #292]	@ (8001030 <HAL_RCC_OscConfig+0x34c>)
 8000f0c:	400a      	ands	r2, r1
 8000f0e:	601a      	str	r2, [r3, #0]

        /* Get Start Tick*/
        tickstart = HAL_GetTick();
 8000f10:	f7ff fc24 	bl	800075c <HAL_GetTick>
 8000f14:	0003      	movs	r3, r0
 8000f16:	613b      	str	r3, [r7, #16]

        /* Wait till HSI is disabled */
        while (READ_BIT(RCC->CR, RCC_CR_HSIRDY) != 0U)
 8000f18:	e008      	b.n	8000f2c <HAL_RCC_OscConfig+0x248>
        {
          if ((HAL_GetTick() - tickstart) > HSI_TIMEOUT_VALUE)
 8000f1a:	f7ff fc1f 	bl	800075c <HAL_GetTick>
 8000f1e:	0002      	movs	r2, r0
 8000f20:	693b      	ldr	r3, [r7, #16]
 8000f22:	1ad3      	subs	r3, r2, r3
 8000f24:	2b02      	cmp	r3, #2
 8000f26:	d901      	bls.n	8000f2c <HAL_RCC_OscConfig+0x248>
          {
            return HAL_TIMEOUT;
 8000f28:	2303      	movs	r3, #3
 8000f2a:	e1d8      	b.n	80012de <HAL_RCC_OscConfig+0x5fa>
        while (READ_BIT(RCC->CR, RCC_CR_HSIRDY) != 0U)
 8000f2c:	4b38      	ldr	r3, [pc, #224]	@ (8001010 <HAL_RCC_OscConfig+0x32c>)
 8000f2e:	681a      	ldr	r2, [r3, #0]
 8000f30:	2380      	movs	r3, #128	@ 0x80
 8000f32:	00db      	lsls	r3, r3, #3
 8000f34:	4013      	ands	r3, r2
 8000f36:	d1f0      	bne.n	8000f1a <HAL_RCC_OscConfig+0x236>
 8000f38:	e000      	b.n	8000f3c <HAL_RCC_OscConfig+0x258>
      if ((READ_BIT(RCC->CR, RCC_CR_HSIRDY) != 0U) && (RCC_OscInitStruct->HSIState == RCC_HSI_OFF))
 8000f3a:	46c0      	nop			@ (mov r8, r8)
        }
      }
    }
  }
  /*------------------------------ LSI Configuration -------------------------*/
  if (((RCC_OscInitStruct->OscillatorType) & RCC_OSCILLATORTYPE_LSI) == RCC_OSCILLATORTYPE_LSI)
 8000f3c:	687b      	ldr	r3, [r7, #4]
 8000f3e:	681b      	ldr	r3, [r3, #0]
 8000f40:	2208      	movs	r2, #8
 8000f42:	4013      	ands	r3, r2
 8000f44:	d047      	beq.n	8000fd6 <HAL_RCC_OscConfig+0x2f2>
  {
    /* Check the parameters */
    assert_param(IS_RCC_LSI(RCC_OscInitStruct->LSIState));

    /* Check if LSI is used as system clock */
    if (__HAL_RCC_GET_SYSCLK_SOURCE() == RCC_SYSCLKSOURCE_STATUS_LSI)
 8000f46:	4b32      	ldr	r3, [pc, #200]	@ (8001010 <HAL_RCC_OscConfig+0x32c>)
 8000f48:	689b      	ldr	r3, [r3, #8]
 8000f4a:	2238      	movs	r2, #56	@ 0x38
 8000f4c:	4013      	ands	r3, r2
 8000f4e:	2b18      	cmp	r3, #24
 8000f50:	d10a      	bne.n	8000f68 <HAL_RCC_OscConfig+0x284>
    {
      /* When LSI is used as system clock it will not be disabled */
      if ((((RCC->CSR) & RCC_CSR_LSIRDY) != 0U) && (RCC_OscInitStruct->LSIState == RCC_LSI_OFF))
 8000f52:	4b2f      	ldr	r3, [pc, #188]	@ (8001010 <HAL_RCC_OscConfig+0x32c>)
 8000f54:	6e1b      	ldr	r3, [r3, #96]	@ 0x60
 8000f56:	2202      	movs	r2, #2
 8000f58:	4013      	ands	r3, r2
 8000f5a:	d03c      	beq.n	8000fd6 <HAL_RCC_OscConfig+0x2f2>
 8000f5c:	687b      	ldr	r3, [r7, #4]
 8000f5e:	699b      	ldr	r3, [r3, #24]
 8000f60:	2b00      	cmp	r3, #0
 8000f62:	d138      	bne.n	8000fd6 <HAL_RCC_OscConfig+0x2f2>
      {
        return HAL_ERROR;
 8000f64:	2301      	movs	r3, #1
 8000f66:	e1ba      	b.n	80012de <HAL_RCC_OscConfig+0x5fa>
      }
    }
    else
    {
      /* Check the LSI State */
      if (RCC_OscInitStruct->LSIState != RCC_LSI_OFF)
 8000f68:	687b      	ldr	r3, [r7, #4]
 8000f6a:	699b      	ldr	r3, [r3, #24]
 8000f6c:	2b00      	cmp	r3, #0
 8000f6e:	d019      	beq.n	8000fa4 <HAL_RCC_OscConfig+0x2c0>
      {
        /* Enable the Internal Low Speed oscillator (LSI). */
        __HAL_RCC_LSI_ENABLE();
 8000f70:	4b27      	ldr	r3, [pc, #156]	@ (8001010 <HAL_RCC_OscConfig+0x32c>)
 8000f72:	6e1a      	ldr	r2, [r3, #96]	@ 0x60
 8000f74:	4b26      	ldr	r3, [pc, #152]	@ (8001010 <HAL_RCC_OscConfig+0x32c>)
 8000f76:	2101      	movs	r1, #1
 8000f78:	430a      	orrs	r2, r1
 8000f7a:	661a      	str	r2, [r3, #96]	@ 0x60

        /* Get Start Tick*/
        tickstart = HAL_GetTick();
 8000f7c:	f7ff fbee 	bl	800075c <HAL_GetTick>
 8000f80:	0003      	movs	r3, r0
 8000f82:	613b      	str	r3, [r7, #16]

        /* Wait till LSI is ready */
        while (READ_BIT(RCC->CSR, RCC_CSR_LSIRDY) == 0U)
 8000f84:	e008      	b.n	8000f98 <HAL_RCC_OscConfig+0x2b4>
        {
          if ((HAL_GetTick() - tickstart) > LSI_TIMEOUT_VALUE)
 8000f86:	f7ff fbe9 	bl	800075c <HAL_GetTick>
 8000f8a:	0002      	movs	r2, r0
 8000f8c:	693b      	ldr	r3, [r7, #16]
 8000f8e:	1ad3      	subs	r3, r2, r3
 8000f90:	2b02      	cmp	r3, #2
 8000f92:	d901      	bls.n	8000f98 <HAL_RCC_OscConfig+0x2b4>
          {
            return HAL_TIMEOUT;
 8000f94:	2303      	movs	r3, #3
 8000f96:	e1a2      	b.n	80012de <HAL_RCC_OscConfig+0x5fa>
        while (READ_BIT(RCC->CSR, RCC_CSR_LSIRDY) == 0U)
 8000f98:	4b1d      	ldr	r3, [pc, #116]	@ (8001010 <HAL_RCC_OscConfig+0x32c>)
 8000f9a:	6e1b      	ldr	r3, [r3, #96]	@ 0x60
 8000f9c:	2202      	movs	r2, #2
 8000f9e:	4013      	ands	r3, r2
 8000fa0:	d0f1      	beq.n	8000f86 <HAL_RCC_OscConfig+0x2a2>
 8000fa2:	e018      	b.n	8000fd6 <HAL_RCC_OscConfig+0x2f2>
        }
      }
      else
      {
        /* Disable the Internal Low Speed oscillator (LSI). */
        __HAL_RCC_LSI_DISABLE();
 8000fa4:	4b1a      	ldr	r3, [pc, #104]	@ (8001010 <HAL_RCC_OscConfig+0x32c>)
 8000fa6:	6e1a      	ldr	r2, [r3, #96]	@ 0x60
 8000fa8:	4b19      	ldr	r3, [pc, #100]	@ (8001010 <HAL_RCC_OscConfig+0x32c>)
 8000faa:	2101      	movs	r1, #1
 8000fac:	438a      	bics	r2, r1
 8000fae:	661a      	str	r2, [r3, #96]	@ 0x60

        /* Get Start Tick*/
        tickstart = HAL_GetTick();
 8000fb0:	f7ff fbd4 	bl	800075c <HAL_GetTick>
 8000fb4:	0003      	movs	r3, r0
 8000fb6:	613b      	str	r3, [r7, #16]

        /* Wait till LSI is disabled */
        while (READ_BIT(RCC->CSR, RCC_CSR_LSIRDY) != 0U)
 8000fb8:	e008      	b.n	8000fcc <HAL_RCC_OscConfig+0x2e8>
        {
          if ((HAL_GetTick() - tickstart) > LSI_TIMEOUT_VALUE)
 8000fba:	f7ff fbcf 	bl	800075c <HAL_GetTick>
 8000fbe:	0002      	movs	r2, r0
 8000fc0:	693b      	ldr	r3, [r7, #16]
 8000fc2:	1ad3      	subs	r3, r2, r3
 8000fc4:	2b02      	cmp	r3, #2
 8000fc6:	d901      	bls.n	8000fcc <HAL_RCC_OscConfig+0x2e8>
          {
            return HAL_TIMEOUT;
 8000fc8:	2303      	movs	r3, #3
 8000fca:	e188      	b.n	80012de <HAL_RCC_OscConfig+0x5fa>
        while (READ_BIT(RCC->CSR, RCC_CSR_LSIRDY) != 0U)
 8000fcc:	4b10      	ldr	r3, [pc, #64]	@ (8001010 <HAL_RCC_OscConfig+0x32c>)
 8000fce:	6e1b      	ldr	r3, [r3, #96]	@ 0x60
 8000fd0:	2202      	movs	r2, #2
 8000fd2:	4013      	ands	r3, r2
 8000fd4:	d1f1      	bne.n	8000fba <HAL_RCC_OscConfig+0x2d6>
        }
      }
    }
  }
  /*------------------------------ LSE Configuration -------------------------*/
  if (((RCC_OscInitStruct->OscillatorType) & RCC_OSCILLATORTYPE_LSE) == RCC_OSCILLATORTYPE_LSE)
 8000fd6:	687b      	ldr	r3, [r7, #4]
 8000fd8:	681b      	ldr	r3, [r3, #0]
 8000fda:	2204      	movs	r2, #4
 8000fdc:	4013      	ands	r3, r2
 8000fde:	d100      	bne.n	8000fe2 <HAL_RCC_OscConfig+0x2fe>
 8000fe0:	e0c6      	b.n	8001170 <HAL_RCC_OscConfig+0x48c>
  {
    FlagStatus       pwrclkchanged = RESET;
 8000fe2:	231f      	movs	r3, #31
 8000fe4:	18fb      	adds	r3, r7, r3
 8000fe6:	2200      	movs	r2, #0
 8000fe8:	701a      	strb	r2, [r3, #0]

    /* Check the parameters */
    assert_param(IS_RCC_LSE(RCC_OscInitStruct->LSEState));

    /* When the LSE is used as system clock, it is not allowed disable it */
    if (__HAL_RCC_GET_SYSCLK_SOURCE() == RCC_SYSCLKSOURCE_STATUS_LSE)
 8000fea:	4b09      	ldr	r3, [pc, #36]	@ (8001010 <HAL_RCC_OscConfig+0x32c>)
 8000fec:	689b      	ldr	r3, [r3, #8]
 8000fee:	2238      	movs	r2, #56	@ 0x38
 8000ff0:	4013      	ands	r3, r2
 8000ff2:	2b20      	cmp	r3, #32
 8000ff4:	d11e      	bne.n	8001034 <HAL_RCC_OscConfig+0x350>
    {
      if ((((RCC->BDCR) & RCC_BDCR_LSERDY) != 0U) && (RCC_OscInitStruct->LSEState == RCC_LSE_OFF))
 8000ff6:	4b06      	ldr	r3, [pc, #24]	@ (8001010 <HAL_RCC_OscConfig+0x32c>)
 8000ff8:	6ddb      	ldr	r3, [r3, #92]	@ 0x5c
 8000ffa:	2202      	movs	r2, #2
 8000ffc:	4013      	ands	r3, r2
 8000ffe:	d100      	bne.n	8001002 <HAL_RCC_OscConfig+0x31e>
 8001000:	e0b6      	b.n	8001170 <HAL_RCC_OscConfig+0x48c>
 8001002:	687b      	ldr	r3, [r7, #4]
 8001004:	689b      	ldr	r3, [r3, #8]
 8001006:	2b00      	cmp	r3, #0
 8001008:	d000      	beq.n	800100c <HAL_RCC_OscConfig+0x328>
 800100a:	e0b1      	b.n	8001170 <HAL_RCC_OscConfig+0x48c>
      {
        return HAL_ERROR;
 800100c:	2301      	movs	r3, #1
 800100e:	e166      	b.n	80012de <HAL_RCC_OscConfig+0x5fa>
 8001010:	40021000 	.word	0x40021000
 8001014:	fffeffff 	.word	0xfffeffff
 8001018:	fffbffff 	.word	0xfffbffff
 800101c:	ffff80ff 	.word	0xffff80ff
 8001020:	ffffc7ff 	.word	0xffffc7ff
 8001024:	00f42400 	.word	0x00f42400
 8001028:	20000000 	.word	0x20000000
 800102c:	20000004 	.word	0x20000004
 8001030:	fffffeff 	.word	0xfffffeff
    }
    else
    {
      /* Update LSE configuration in Backup Domain control register    */
      /* Requires to enable write access to Backup Domain of necessary */
      if (__HAL_RCC_PWR_IS_CLK_DISABLED() != 0U)
 8001034:	4bac      	ldr	r3, [pc, #688]	@ (80012e8 <HAL_RCC_OscConfig+0x604>)
 8001036:	6bda      	ldr	r2, [r3, #60]	@ 0x3c
 8001038:	2380      	movs	r3, #128	@ 0x80
 800103a:	055b      	lsls	r3, r3, #21
 800103c:	4013      	ands	r3, r2
 800103e:	d101      	bne.n	8001044 <HAL_RCC_OscConfig+0x360>
 8001040:	2301      	movs	r3, #1
 8001042:	e000      	b.n	8001046 <HAL_RCC_OscConfig+0x362>
 8001044:	2300      	movs	r3, #0
 8001046:	2b00      	cmp	r3, #0
 8001048:	d011      	beq.n	800106e <HAL_RCC_OscConfig+0x38a>
      {
        __HAL_RCC_PWR_CLK_ENABLE();
 800104a:	4ba7      	ldr	r3, [pc, #668]	@ (80012e8 <HAL_RCC_OscConfig+0x604>)
 800104c:	6bda      	ldr	r2, [r3, #60]	@ 0x3c
 800104e:	4ba6      	ldr	r3, [pc, #664]	@ (80012e8 <HAL_RCC_OscConfig+0x604>)
 8001050:	2180      	movs	r1, #128	@ 0x80
 8001052:	0549      	lsls	r1, r1, #21
 8001054:	430a      	orrs	r2, r1
 8001056:	63da      	str	r2, [r3, #60]	@ 0x3c
 8001058:	4ba3      	ldr	r3, [pc, #652]	@ (80012e8 <HAL_RCC_OscConfig+0x604>)
 800105a:	6bda      	ldr	r2, [r3, #60]	@ 0x3c
 800105c:	2380      	movs	r3, #128	@ 0x80
 800105e:	055b      	lsls	r3, r3, #21
 8001060:	4013      	ands	r3, r2
 8001062:	60fb      	str	r3, [r7, #12]
 8001064:	68fb      	ldr	r3, [r7, #12]
        pwrclkchanged = SET;
 8001066:	231f      	movs	r3, #31
 8001068:	18fb      	adds	r3, r7, r3
 800106a:	2201      	movs	r2, #1
 800106c:	701a      	strb	r2, [r3, #0]
      }

      if (HAL_IS_BIT_CLR(PWR->CR1, PWR_CR1_DBP))
 800106e:	4b9f      	ldr	r3, [pc, #636]	@ (80012ec <HAL_RCC_OscConfig+0x608>)
 8001070:	681a      	ldr	r2, [r3, #0]
 8001072:	2380      	movs	r3, #128	@ 0x80
 8001074:	005b      	lsls	r3, r3, #1
 8001076:	4013      	ands	r3, r2
 8001078:	d11a      	bne.n	80010b0 <HAL_RCC_OscConfig+0x3cc>
      {
        /* Enable write access to Backup domain */
        SET_BIT(PWR->CR1, PWR_CR1_DBP);
 800107a:	4b9c      	ldr	r3, [pc, #624]	@ (80012ec <HAL_RCC_OscConfig+0x608>)
 800107c:	681a      	ldr	r2, [r3, #0]
 800107e:	4b9b      	ldr	r3, [pc, #620]	@ (80012ec <HAL_RCC_OscConfig+0x608>)
 8001080:	2180      	movs	r1, #128	@ 0x80
 8001082:	0049      	lsls	r1, r1, #1
 8001084:	430a      	orrs	r2, r1
 8001086:	601a      	str	r2, [r3, #0]

        /* Wait for Backup domain Write protection disable */
        tickstart = HAL_GetTick();
 8001088:	f7ff fb68 	bl	800075c <HAL_GetTick>
 800108c:	0003      	movs	r3, r0
 800108e:	613b      	str	r3, [r7, #16]

        while (HAL_IS_BIT_CLR(PWR->CR1, PWR_CR1_DBP))
 8001090:	e008      	b.n	80010a4 <HAL_RCC_OscConfig+0x3c0>
        {
          if ((HAL_GetTick() - tickstart) > RCC_DBP_TIMEOUT_VALUE)
 8001092:	f7ff fb63 	bl	800075c <HAL_GetTick>
 8001096:	0002      	movs	r2, r0
 8001098:	693b      	ldr	r3, [r7, #16]
 800109a:	1ad3      	subs	r3, r2, r3
 800109c:	2b02      	cmp	r3, #2
 800109e:	d901      	bls.n	80010a4 <HAL_RCC_OscConfig+0x3c0>
          {
            return HAL_TIMEOUT;
 80010a0:	2303      	movs	r3, #3
 80010a2:	e11c      	b.n	80012de <HAL_RCC_OscConfig+0x5fa>
        while (HAL_IS_BIT_CLR(PWR->CR1, PWR_CR1_DBP))
 80010a4:	4b91      	ldr	r3, [pc, #580]	@ (80012ec <HAL_RCC_OscConfig+0x608>)
 80010a6:	681a      	ldr	r2, [r3, #0]
 80010a8:	2380      	movs	r3, #128	@ 0x80
 80010aa:	005b      	lsls	r3, r3, #1
 80010ac:	4013      	ands	r3, r2
 80010ae:	d0f0      	beq.n	8001092 <HAL_RCC_OscConfig+0x3ae>
          }
        }
      }

      /* Set the new LSE configuration -----------------------------------------*/
      __HAL_RCC_LSE_CONFIG(RCC_OscInitStruct->LSEState);
 80010b0:	687b      	ldr	r3, [r7, #4]
 80010b2:	689b      	ldr	r3, [r3, #8]
 80010b4:	2b01      	cmp	r3, #1
 80010b6:	d106      	bne.n	80010c6 <HAL_RCC_OscConfig+0x3e2>
 80010b8:	4b8b      	ldr	r3, [pc, #556]	@ (80012e8 <HAL_RCC_OscConfig+0x604>)
 80010ba:	6dda      	ldr	r2, [r3, #92]	@ 0x5c
 80010bc:	4b8a      	ldr	r3, [pc, #552]	@ (80012e8 <HAL_RCC_OscConfig+0x604>)
 80010be:	2101      	movs	r1, #1
 80010c0:	430a      	orrs	r2, r1
 80010c2:	65da      	str	r2, [r3, #92]	@ 0x5c
 80010c4:	e01c      	b.n	8001100 <HAL_RCC_OscConfig+0x41c>
 80010c6:	687b      	ldr	r3, [r7, #4]
 80010c8:	689b      	ldr	r3, [r3, #8]
 80010ca:	2b05      	cmp	r3, #5
 80010cc:	d10c      	bne.n	80010e8 <HAL_RCC_OscConfig+0x404>
 80010ce:	4b86      	ldr	r3, [pc, #536]	@ (80012e8 <HAL_RCC_OscConfig+0x604>)
 80010d0:	6dda      	ldr	r2, [r3, #92]	@ 0x5c
 80010d2:	4b85      	ldr	r3, [pc, #532]	@ (80012e8 <HAL_RCC_OscConfig+0x604>)
 80010d4:	2104      	movs	r1, #4
 80010d6:	430a      	orrs	r2, r1
 80010d8:	65da      	str	r2, [r3, #92]	@ 0x5c
 80010da:	4b83      	ldr	r3, [pc, #524]	@ (80012e8 <HAL_RCC_OscConfig+0x604>)
 80010dc:	6dda      	ldr	r2, [r3, #92]	@ 0x5c
 80010de:	4b82      	ldr	r3, [pc, #520]	@ (80012e8 <HAL_RCC_OscConfig+0x604>)
 80010e0:	2101      	movs	r1, #1
 80010e2:	430a      	orrs	r2, r1
 80010e4:	65da      	str	r2, [r3, #92]	@ 0x5c
 80010e6:	e00b      	b.n	8001100 <HAL_RCC_OscConfig+0x41c>
 80010e8:	4b7f      	ldr	r3, [pc, #508]	@ (80012e8 <HAL_RCC_OscConfig+0x604>)
 80010ea:	6dda      	ldr	r2, [r3, #92]	@ 0x5c
 80010ec:	4b7e      	ldr	r3, [pc, #504]	@ (80012e8 <HAL_RCC_OscConfig+0x604>)
 80010ee:	2101      	movs	r1, #1
 80010f0:	438a      	bics	r2, r1
 80010f2:	65da      	str	r2, [r3, #92]	@ 0x5c
 80010f4:	4b7c      	ldr	r3, [pc, #496]	@ (80012e8 <HAL_RCC_OscConfig+0x604>)
 80010f6:	6dda      	ldr	r2, [r3, #92]	@ 0x5c
 80010f8:	4b7b      	ldr	r3, [pc, #492]	@ (80012e8 <HAL_RCC_OscConfig+0x604>)
 80010fa:	2104      	movs	r1, #4
 80010fc:	438a      	bics	r2, r1
 80010fe:	65da      	str	r2, [r3, #92]	@ 0x5c

      /* Check the LSE State */
      if (RCC_OscInitStruct->LSEState != RCC_LSE_OFF)
 8001100:	687b      	ldr	r3, [r7, #4]
 8001102:	689b      	ldr	r3, [r3, #8]
 8001104:	2b00      	cmp	r3, #0
 8001106:	d014      	beq.n	8001132 <HAL_RCC_OscConfig+0x44e>
      {
        /* Get Start Tick*/
        tickstart = HAL_GetTick();
 8001108:	f7ff fb28 	bl	800075c <HAL_GetTick>
 800110c:	0003      	movs	r3, r0
 800110e:	613b      	str	r3, [r7, #16]

        /* Wait till LSE is ready */
        while (READ_BIT(RCC->BDCR, RCC_BDCR_LSERDY) == 0U)
 8001110:	e009      	b.n	8001126 <HAL_RCC_OscConfig+0x442>
        {
          if ((HAL_GetTick() - tickstart) > RCC_LSE_TIMEOUT_VALUE)
 8001112:	f7ff fb23 	bl	800075c <HAL_GetTick>
 8001116:	0002      	movs	r2, r0
 8001118:	693b      	ldr	r3, [r7, #16]
 800111a:	1ad3      	subs	r3, r2, r3
 800111c:	4a74      	ldr	r2, [pc, #464]	@ (80012f0 <HAL_RCC_OscConfig+0x60c>)
 800111e:	4293      	cmp	r3, r2
 8001120:	d901      	bls.n	8001126 <HAL_RCC_OscConfig+0x442>
          {
            return HAL_TIMEOUT;
 8001122:	2303      	movs	r3, #3
 8001124:	e0db      	b.n	80012de <HAL_RCC_OscConfig+0x5fa>
        while (READ_BIT(RCC->BDCR, RCC_BDCR_LSERDY) == 0U)
 8001126:	4b70      	ldr	r3, [pc, #448]	@ (80012e8 <HAL_RCC_OscConfig+0x604>)
 8001128:	6ddb      	ldr	r3, [r3, #92]	@ 0x5c
 800112a:	2202      	movs	r2, #2
 800112c:	4013      	ands	r3, r2
 800112e:	d0f0      	beq.n	8001112 <HAL_RCC_OscConfig+0x42e>
 8001130:	e013      	b.n	800115a <HAL_RCC_OscConfig+0x476>
        }
      }
      else
      {
        /* Get Start Tick*/
        tickstart = HAL_GetTick();
 8001132:	f7ff fb13 	bl	800075c <HAL_GetTick>
 8001136:	0003      	movs	r3, r0
 8001138:	613b      	str	r3, [r7, #16]

        /* Wait till LSE is disabled */
        while (READ_BIT(RCC->BDCR, RCC_BDCR_LSERDY) != 0U)
 800113a:	e009      	b.n	8001150 <HAL_RCC_OscConfig+0x46c>
        {
          if ((HAL_GetTick() - tickstart) > RCC_LSE_TIMEOUT_VALUE)
 800113c:	f7ff fb0e 	bl	800075c <HAL_GetTick>
 8001140:	0002      	movs	r2, r0
 8001142:	693b      	ldr	r3, [r7, #16]
 8001144:	1ad3      	subs	r3, r2, r3
 8001146:	4a6a      	ldr	r2, [pc, #424]	@ (80012f0 <HAL_RCC_OscConfig+0x60c>)
 8001148:	4293      	cmp	r3, r2
 800114a:	d901      	bls.n	8001150 <HAL_RCC_OscConfig+0x46c>
          {
            return HAL_TIMEOUT;
 800114c:	2303      	movs	r3, #3
 800114e:	e0c6      	b.n	80012de <HAL_RCC_OscConfig+0x5fa>
        while (READ_BIT(RCC->BDCR, RCC_BDCR_LSERDY) != 0U)
 8001150:	4b65      	ldr	r3, [pc, #404]	@ (80012e8 <HAL_RCC_OscConfig+0x604>)
 8001152:	6ddb      	ldr	r3, [r3, #92]	@ 0x5c
 8001154:	2202      	movs	r2, #2
 8001156:	4013      	ands	r3, r2
 8001158:	d1f0      	bne.n	800113c <HAL_RCC_OscConfig+0x458>
          }
        }
      }

      /* Restore clock configuration if changed */
      if (pwrclkchanged == SET)
 800115a:	231f      	movs	r3, #31
 800115c:	18fb      	adds	r3, r7, r3
 800115e:	781b      	ldrb	r3, [r3, #0]
 8001160:	2b01      	cmp	r3, #1
 8001162:	d105      	bne.n	8001170 <HAL_RCC_OscConfig+0x48c>
      {
        __HAL_RCC_PWR_CLK_DISABLE();
 8001164:	4b60      	ldr	r3, [pc, #384]	@ (80012e8 <HAL_RCC_OscConfig+0x604>)
 8001166:	6bda      	ldr	r2, [r3, #60]	@ 0x3c
 8001168:	4b5f      	ldr	r3, [pc, #380]	@ (80012e8 <HAL_RCC_OscConfig+0x604>)
 800116a:	4962      	ldr	r1, [pc, #392]	@ (80012f4 <HAL_RCC_OscConfig+0x610>)
 800116c:	400a      	ands	r2, r1
 800116e:	63da      	str	r2, [r3, #60]	@ 0x3c
#endif /* RCC_HSI48_SUPPORT */
  /*-------------------------------- PLL Configuration -----------------------*/
  /* Check the parameters */
  assert_param(IS_RCC_PLL(RCC_OscInitStruct->PLL.PLLState));

  if (RCC_OscInitStruct->PLL.PLLState != RCC_PLL_NONE)
 8001170:	687b      	ldr	r3, [r7, #4]
 8001172:	69db      	ldr	r3, [r3, #28]
 8001174:	2b00      	cmp	r3, #0
 8001176:	d100      	bne.n	800117a <HAL_RCC_OscConfig+0x496>
 8001178:	e0b0      	b.n	80012dc <HAL_RCC_OscConfig+0x5f8>
  {
    /* Check if the PLL is used as system clock or not */
    if (__HAL_RCC_GET_SYSCLK_SOURCE() != RCC_SYSCLKSOURCE_STATUS_PLLCLK)
 800117a:	4b5b      	ldr	r3, [pc, #364]	@ (80012e8 <HAL_RCC_OscConfig+0x604>)
 800117c:	689b      	ldr	r3, [r3, #8]
 800117e:	2238      	movs	r2, #56	@ 0x38
 8001180:	4013      	ands	r3, r2
 8001182:	2b10      	cmp	r3, #16
 8001184:	d100      	bne.n	8001188 <HAL_RCC_OscConfig+0x4a4>
 8001186:	e078      	b.n	800127a <HAL_RCC_OscConfig+0x596>
    {
      if (RCC_OscInitStruct->PLL.PLLState == RCC_PLL_ON)
 8001188:	687b      	ldr	r3, [r7, #4]
 800118a:	69db      	ldr	r3, [r3, #28]
 800118c:	2b02      	cmp	r3, #2
 800118e:	d153      	bne.n	8001238 <HAL_RCC_OscConfig+0x554>
        assert_param(IS_RCC_PLLQ_VALUE(RCC_OscInitStruct->PLL.PLLQ));
#endif /* RCC_PLLQ_SUPPORT */
        assert_param(IS_RCC_PLLR_VALUE(RCC_OscInitStruct->PLL.PLLR));

        /* Disable the main PLL. */
        __HAL_RCC_PLL_DISABLE();
 8001190:	4b55      	ldr	r3, [pc, #340]	@ (80012e8 <HAL_RCC_OscConfig+0x604>)
 8001192:	681a      	ldr	r2, [r3, #0]
 8001194:	4b54      	ldr	r3, [pc, #336]	@ (80012e8 <HAL_RCC_OscConfig+0x604>)
 8001196:	4958      	ldr	r1, [pc, #352]	@ (80012f8 <HAL_RCC_OscConfig+0x614>)
 8001198:	400a      	ands	r2, r1
 800119a:	601a      	str	r2, [r3, #0]

        /* Get Start Tick*/
        tickstart = HAL_GetTick();
 800119c:	f7ff fade 	bl	800075c <HAL_GetTick>
 80011a0:	0003      	movs	r3, r0
 80011a2:	613b      	str	r3, [r7, #16]

        /* Wait till PLL is ready */
        while (READ_BIT(RCC->CR, RCC_CR_PLLRDY) != 0U)
 80011a4:	e008      	b.n	80011b8 <HAL_RCC_OscConfig+0x4d4>
        {
          if ((HAL_GetTick() - tickstart) > PLL_TIMEOUT_VALUE)
 80011a6:	f7ff fad9 	bl	800075c <HAL_GetTick>
 80011aa:	0002      	movs	r2, r0
 80011ac:	693b      	ldr	r3, [r7, #16]
 80011ae:	1ad3      	subs	r3, r2, r3
 80011b0:	2b02      	cmp	r3, #2
 80011b2:	d901      	bls.n	80011b8 <HAL_RCC_OscConfig+0x4d4>
          {
            return HAL_TIMEOUT;
 80011b4:	2303      	movs	r3, #3
 80011b6:	e092      	b.n	80012de <HAL_RCC_OscConfig+0x5fa>
        while (READ_BIT(RCC->CR, RCC_CR_PLLRDY) != 0U)
 80011b8:	4b4b      	ldr	r3, [pc, #300]	@ (80012e8 <HAL_RCC_OscConfig+0x604>)
 80011ba:	681a      	ldr	r2, [r3, #0]
 80011bc:	2380      	movs	r3, #128	@ 0x80
 80011be:	049b      	lsls	r3, r3, #18
 80011c0:	4013      	ands	r3, r2
 80011c2:	d1f0      	bne.n	80011a6 <HAL_RCC_OscConfig+0x4c2>
                             RCC_OscInitStruct->PLL.PLLN,
                             RCC_OscInitStruct->PLL.PLLP,
                             RCC_OscInitStruct->PLL.PLLQ,
                             RCC_OscInitStruct->PLL.PLLR);
#else /* !RCC_PLLQ_SUPPORT */
        __HAL_RCC_PLL_CONFIG(RCC_OscInitStruct->PLL.PLLSource,
 80011c4:	4b48      	ldr	r3, [pc, #288]	@ (80012e8 <HAL_RCC_OscConfig+0x604>)
 80011c6:	68db      	ldr	r3, [r3, #12]
 80011c8:	4a4c      	ldr	r2, [pc, #304]	@ (80012fc <HAL_RCC_OscConfig+0x618>)
 80011ca:	4013      	ands	r3, r2
 80011cc:	0019      	movs	r1, r3
 80011ce:	687b      	ldr	r3, [r7, #4]
 80011d0:	6a1a      	ldr	r2, [r3, #32]
 80011d2:	687b      	ldr	r3, [r7, #4]
 80011d4:	6a5b      	ldr	r3, [r3, #36]	@ 0x24
 80011d6:	431a      	orrs	r2, r3
 80011d8:	687b      	ldr	r3, [r7, #4]
 80011da:	6a9b      	ldr	r3, [r3, #40]	@ 0x28
 80011dc:	021b      	lsls	r3, r3, #8
 80011de:	431a      	orrs	r2, r3
 80011e0:	687b      	ldr	r3, [r7, #4]
 80011e2:	6adb      	ldr	r3, [r3, #44]	@ 0x2c
 80011e4:	431a      	orrs	r2, r3
 80011e6:	687b      	ldr	r3, [r7, #4]
 80011e8:	6b1b      	ldr	r3, [r3, #48]	@ 0x30
 80011ea:	431a      	orrs	r2, r3
 80011ec:	4b3e      	ldr	r3, [pc, #248]	@ (80012e8 <HAL_RCC_OscConfig+0x604>)
 80011ee:	430a      	orrs	r2, r1
 80011f0:	60da      	str	r2, [r3, #12]
                             RCC_OscInitStruct->PLL.PLLP,
                             RCC_OscInitStruct->PLL.PLLR);
#endif /* RCC_PLLQ_SUPPORT */

        /* Enable the main PLL. */
        __HAL_RCC_PLL_ENABLE();
 80011f2:	4b3d      	ldr	r3, [pc, #244]	@ (80012e8 <HAL_RCC_OscConfig+0x604>)
 80011f4:	681a      	ldr	r2, [r3, #0]
 80011f6:	4b3c      	ldr	r3, [pc, #240]	@ (80012e8 <HAL_RCC_OscConfig+0x604>)
 80011f8:	2180      	movs	r1, #128	@ 0x80
 80011fa:	0449      	lsls	r1, r1, #17
 80011fc:	430a      	orrs	r2, r1
 80011fe:	601a      	str	r2, [r3, #0]

        /* Enable PLLR Clock output. */
        __HAL_RCC_PLLCLKOUT_ENABLE(RCC_PLLRCLK);
 8001200:	4b39      	ldr	r3, [pc, #228]	@ (80012e8 <HAL_RCC_OscConfig+0x604>)
 8001202:	68da      	ldr	r2, [r3, #12]
 8001204:	4b38      	ldr	r3, [pc, #224]	@ (80012e8 <HAL_RCC_OscConfig+0x604>)
 8001206:	2180      	movs	r1, #128	@ 0x80
 8001208:	0549      	lsls	r1, r1, #21
 800120a:	430a      	orrs	r2, r1
 800120c:	60da      	str	r2, [r3, #12]

        /* Get Start Tick*/
        tickstart = HAL_GetTick();
 800120e:	f7ff faa5 	bl	800075c <HAL_GetTick>
 8001212:	0003      	movs	r3, r0
 8001214:	613b      	str	r3, [r7, #16]

        /* Wait till PLL is ready */
        while (READ_BIT(RCC->CR, RCC_CR_PLLRDY) == 0U)
 8001216:	e008      	b.n	800122a <HAL_RCC_OscConfig+0x546>
        {
          if ((HAL_GetTick() - tickstart) > PLL_TIMEOUT_VALUE)
 8001218:	f7ff faa0 	bl	800075c <HAL_GetTick>
 800121c:	0002      	movs	r2, r0
 800121e:	693b      	ldr	r3, [r7, #16]
 8001220:	1ad3      	subs	r3, r2, r3
 8001222:	2b02      	cmp	r3, #2
 8001224:	d901      	bls.n	800122a <HAL_RCC_OscConfig+0x546>
          {
            return HAL_TIMEOUT;
 8001226:	2303      	movs	r3, #3
 8001228:	e059      	b.n	80012de <HAL_RCC_OscConfig+0x5fa>
        while (READ_BIT(RCC->CR, RCC_CR_PLLRDY) == 0U)
 800122a:	4b2f      	ldr	r3, [pc, #188]	@ (80012e8 <HAL_RCC_OscConfig+0x604>)
 800122c:	681a      	ldr	r2, [r3, #0]
 800122e:	2380      	movs	r3, #128	@ 0x80
 8001230:	049b      	lsls	r3, r3, #18
 8001232:	4013      	ands	r3, r2
 8001234:	d0f0      	beq.n	8001218 <HAL_RCC_OscConfig+0x534>
 8001236:	e051      	b.n	80012dc <HAL_RCC_OscConfig+0x5f8>
        }
      }
      else
      {
        /* Disable the main PLL. */
        __HAL_RCC_PLL_DISABLE();
 8001238:	4b2b      	ldr	r3, [pc, #172]	@ (80012e8 <HAL_RCC_OscConfig+0x604>)
 800123a:	681a      	ldr	r2, [r3, #0]
 800123c:	4b2a      	ldr	r3, [pc, #168]	@ (80012e8 <HAL_RCC_OscConfig+0x604>)
 800123e:	492e      	ldr	r1, [pc, #184]	@ (80012f8 <HAL_RCC_OscConfig+0x614>)
 8001240:	400a      	ands	r2, r1
 8001242:	601a      	str	r2, [r3, #0]

        /* Get Start Tick*/
        tickstart = HAL_GetTick();
 8001244:	f7ff fa8a 	bl	800075c <HAL_GetTick>
 8001248:	0003      	movs	r3, r0
 800124a:	613b      	str	r3, [r7, #16]

        /* Wait till PLL is disabled */
        while (READ_BIT(RCC->CR, RCC_CR_PLLRDY) != 0U)
 800124c:	e008      	b.n	8001260 <HAL_RCC_OscConfig+0x57c>
        {
          if ((HAL_GetTick() - tickstart) > PLL_TIMEOUT_VALUE)
 800124e:	f7ff fa85 	bl	800075c <HAL_GetTick>
 8001252:	0002      	movs	r2, r0
 8001254:	693b      	ldr	r3, [r7, #16]
 8001256:	1ad3      	subs	r3, r2, r3
 8001258:	2b02      	cmp	r3, #2
 800125a:	d901      	bls.n	8001260 <HAL_RCC_OscConfig+0x57c>
          {
            return HAL_TIMEOUT;
 800125c:	2303      	movs	r3, #3
 800125e:	e03e      	b.n	80012de <HAL_RCC_OscConfig+0x5fa>
        while (READ_BIT(RCC->CR, RCC_CR_PLLRDY) != 0U)
 8001260:	4b21      	ldr	r3, [pc, #132]	@ (80012e8 <HAL_RCC_OscConfig+0x604>)
 8001262:	681a      	ldr	r2, [r3, #0]
 8001264:	2380      	movs	r3, #128	@ 0x80
 8001266:	049b      	lsls	r3, r3, #18
 8001268:	4013      	ands	r3, r2
 800126a:	d1f0      	bne.n	800124e <HAL_RCC_OscConfig+0x56a>
        }
        /* Unselect main PLL clock source and disable main PLL outputs to save power */
#if defined(RCC_PLLQ_SUPPORT)
        RCC->PLLCFGR &= ~(RCC_PLLCFGR_PLLSRC | RCC_PLLCFGR_PLLPEN | RCC_PLLCFGR_PLLQEN | RCC_PLLCFGR_PLLREN);
#else
        RCC->PLLCFGR &= ~(RCC_PLLCFGR_PLLSRC | RCC_PLLCFGR_PLLPEN | RCC_PLLCFGR_PLLREN);
 800126c:	4b1e      	ldr	r3, [pc, #120]	@ (80012e8 <HAL_RCC_OscConfig+0x604>)
 800126e:	68da      	ldr	r2, [r3, #12]
 8001270:	4b1d      	ldr	r3, [pc, #116]	@ (80012e8 <HAL_RCC_OscConfig+0x604>)
 8001272:	4923      	ldr	r1, [pc, #140]	@ (8001300 <HAL_RCC_OscConfig+0x61c>)
 8001274:	400a      	ands	r2, r1
 8001276:	60da      	str	r2, [r3, #12]
 8001278:	e030      	b.n	80012dc <HAL_RCC_OscConfig+0x5f8>
      }
    }
    else
    {
      /* Check if there is a request to disable the PLL used as System clock source */
      if ((RCC_OscInitStruct->PLL.PLLState) == RCC_PLL_OFF)
 800127a:	687b      	ldr	r3, [r7, #4]
 800127c:	69db      	ldr	r3, [r3, #28]
 800127e:	2b01      	cmp	r3, #1
 8001280:	d101      	bne.n	8001286 <HAL_RCC_OscConfig+0x5a2>
      {
        return HAL_ERROR;
 8001282:	2301      	movs	r3, #1
 8001284:	e02b      	b.n	80012de <HAL_RCC_OscConfig+0x5fa>
      }
      else
      {
        /* Do not return HAL_ERROR if request repeats the current configuration */
        temp_pllckcfg = RCC->PLLCFGR;
 8001286:	4b18      	ldr	r3, [pc, #96]	@ (80012e8 <HAL_RCC_OscConfig+0x604>)
 8001288:	68db      	ldr	r3, [r3, #12]
 800128a:	617b      	str	r3, [r7, #20]
        if ((READ_BIT(temp_pllckcfg, RCC_PLLCFGR_PLLSRC) != RCC_OscInitStruct->PLL.PLLSource) ||
 800128c:	697b      	ldr	r3, [r7, #20]
 800128e:	2203      	movs	r2, #3
 8001290:	401a      	ands	r2, r3
 8001292:	687b      	ldr	r3, [r7, #4]
 8001294:	6a1b      	ldr	r3, [r3, #32]
 8001296:	429a      	cmp	r2, r3
 8001298:	d11e      	bne.n	80012d8 <HAL_RCC_OscConfig+0x5f4>
            (READ_BIT(temp_pllckcfg, RCC_PLLCFGR_PLLM) != RCC_OscInitStruct->PLL.PLLM) ||
 800129a:	697b      	ldr	r3, [r7, #20]
 800129c:	2270      	movs	r2, #112	@ 0x70
 800129e:	401a      	ands	r2, r3
 80012a0:	687b      	ldr	r3, [r7, #4]
 80012a2:	6a5b      	ldr	r3, [r3, #36]	@ 0x24
        if ((READ_BIT(temp_pllckcfg, RCC_PLLCFGR_PLLSRC) != RCC_OscInitStruct->PLL.PLLSource) ||
 80012a4:	429a      	cmp	r2, r3
 80012a6:	d117      	bne.n	80012d8 <HAL_RCC_OscConfig+0x5f4>
            (READ_BIT(temp_pllckcfg, RCC_PLLCFGR_PLLN) != (RCC_OscInitStruct->PLL.PLLN << RCC_PLLCFGR_PLLN_Pos)) ||
 80012a8:	697a      	ldr	r2, [r7, #20]
 80012aa:	23fe      	movs	r3, #254	@ 0xfe
 80012ac:	01db      	lsls	r3, r3, #7
 80012ae:	401a      	ands	r2, r3
 80012b0:	687b      	ldr	r3, [r7, #4]
 80012b2:	6a9b      	ldr	r3, [r3, #40]	@ 0x28
 80012b4:	021b      	lsls	r3, r3, #8
            (READ_BIT(temp_pllckcfg, RCC_PLLCFGR_PLLM) != RCC_OscInitStruct->PLL.PLLM) ||
 80012b6:	429a      	cmp	r2, r3
 80012b8:	d10e      	bne.n	80012d8 <HAL_RCC_OscConfig+0x5f4>
            (READ_BIT(temp_pllckcfg, RCC_PLLCFGR_PLLP) != RCC_OscInitStruct->PLL.PLLP) ||
 80012ba:	697a      	ldr	r2, [r7, #20]
 80012bc:	23f8      	movs	r3, #248	@ 0xf8
 80012be:	039b      	lsls	r3, r3, #14
 80012c0:	401a      	ands	r2, r3
 80012c2:	687b      	ldr	r3, [r7, #4]
 80012c4:	6adb      	ldr	r3, [r3, #44]	@ 0x2c
            (READ_BIT(temp_pllckcfg, RCC_PLLCFGR_PLLN) != (RCC_OscInitStruct->PLL.PLLN << RCC_PLLCFGR_PLLN_Pos)) ||
 80012c6:	429a      	cmp	r2, r3
 80012c8:	d106      	bne.n	80012d8 <HAL_RCC_OscConfig+0x5f4>
#if defined (RCC_PLLQ_SUPPORT)
            (READ_BIT(temp_pllckcfg, RCC_PLLCFGR_PLLQ) != RCC_OscInitStruct->PLL.PLLQ) ||
#endif /* RCC_PLLQ_SUPPORT */
            (READ_BIT(temp_pllckcfg, RCC_PLLCFGR_PLLR) != RCC_OscInitStruct->PLL.PLLR))
 80012ca:	697b      	ldr	r3, [r7, #20]
 80012cc:	0f5b      	lsrs	r3, r3, #29
 80012ce:	075a      	lsls	r2, r3, #29
 80012d0:	687b      	ldr	r3, [r7, #4]
 80012d2:	6b1b      	ldr	r3, [r3, #48]	@ 0x30
            (READ_BIT(temp_pllckcfg, RCC_PLLCFGR_PLLP) != RCC_OscInitStruct->PLL.PLLP) ||
 80012d4:	429a      	cmp	r2, r3
 80012d6:	d001      	beq.n	80012dc <HAL_RCC_OscConfig+0x5f8>
        {
          return HAL_ERROR;
 80012d8:	2301      	movs	r3, #1
 80012da:	e000      	b.n	80012de <HAL_RCC_OscConfig+0x5fa>
        }
      }
    }
  }
  return HAL_OK;
 80012dc:	2300      	movs	r3, #0
}
 80012de:	0018      	movs	r0, r3
 80012e0:	46bd      	mov	sp, r7
 80012e2:	b008      	add	sp, #32
 80012e4:	bd80      	pop	{r7, pc}
 80012e6:	46c0      	nop			@ (mov r8, r8)
 80012e8:	40021000 	.word	0x40021000
 80012ec:	40007000 	.word	0x40007000
 80012f0:	00001388 	.word	0x00001388
 80012f4:	efffffff 	.word	0xefffffff
 80012f8:	feffffff 	.word	0xfeffffff
 80012fc:	1fc1808c 	.word	0x1fc1808c
 8001300:	effefffc 	.word	0xeffefffc

08001304 <HAL_RCC_ClockConfig>:
  *         HPRE[3:0] bits to ensure that HCLK not exceed the maximum allowed frequency
  *         (for more details refer to section above "Initialization/de-initialization functions")
  * @retval None
  */
HAL_StatusTypeDef HAL_RCC_ClockConfig(RCC_ClkInitTypeDef  *RCC_ClkInitStruct, uint32_t FLatency)
{
 8001304:	b580      	push	{r7, lr}
 8001306:	b084      	sub	sp, #16
 8001308:	af00      	add	r7, sp, #0
 800130a:	6078      	str	r0, [r7, #4]
 800130c:	6039      	str	r1, [r7, #0]
  uint32_t tickstart;

  /* Check Null pointer */
  if (RCC_ClkInitStruct == NULL)
 800130e:	687b      	ldr	r3, [r7, #4]
 8001310:	2b00      	cmp	r3, #0
 8001312:	d101      	bne.n	8001318 <HAL_RCC_ClockConfig+0x14>
  {
    return HAL_ERROR;
 8001314:	2301      	movs	r3, #1
 8001316:	e0e9      	b.n	80014ec <HAL_RCC_ClockConfig+0x1e8>
  /* To correctly read data from FLASH memory, the number of wait states (LATENCY)
    must be correctly programmed according to the frequency of the FLASH clock
    (HCLK) and the supply voltage of the device. */

  /* Increasing the number of wait states because of higher CPU frequency */
  if (FLatency > __HAL_FLASH_GET_LATENCY())
 8001318:	4b76      	ldr	r3, [pc, #472]	@ (80014f4 <HAL_RCC_ClockConfig+0x1f0>)
 800131a:	681b      	ldr	r3, [r3, #0]
 800131c:	2207      	movs	r2, #7
 800131e:	4013      	ands	r3, r2
 8001320:	683a      	ldr	r2, [r7, #0]
 8001322:	429a      	cmp	r2, r3
 8001324:	d91e      	bls.n	8001364 <HAL_RCC_ClockConfig+0x60>
  {
    /* Program the new number of wait states to the LATENCY bits in the FLASH_ACR register */
    __HAL_FLASH_SET_LATENCY(FLatency);
 8001326:	4b73      	ldr	r3, [pc, #460]	@ (80014f4 <HAL_RCC_ClockConfig+0x1f0>)
 8001328:	681b      	ldr	r3, [r3, #0]
 800132a:	2207      	movs	r2, #7
 800132c:	4393      	bics	r3, r2
 800132e:	0019      	movs	r1, r3
 8001330:	4b70      	ldr	r3, [pc, #448]	@ (80014f4 <HAL_RCC_ClockConfig+0x1f0>)
 8001332:	683a      	ldr	r2, [r7, #0]
 8001334:	430a      	orrs	r2, r1
 8001336:	601a      	str	r2, [r3, #0]

    /* Check that the new number of wait states is taken into account to access the Flash
    memory by polling the FLASH_ACR register */
    tickstart = HAL_GetTick();
 8001338:	f7ff fa10 	bl	800075c <HAL_GetTick>
 800133c:	0003      	movs	r3, r0
 800133e:	60fb      	str	r3, [r7, #12]

    while ((FLASH->ACR & FLASH_ACR_LATENCY) != FLatency)
 8001340:	e009      	b.n	8001356 <HAL_RCC_ClockConfig+0x52>
    {
      if ((HAL_GetTick() - tickstart) > CLOCKSWITCH_TIMEOUT_VALUE)
 8001342:	f7ff fa0b 	bl	800075c <HAL_GetTick>
 8001346:	0002      	movs	r2, r0
 8001348:	68fb      	ldr	r3, [r7, #12]
 800134a:	1ad3      	subs	r3, r2, r3
 800134c:	4a6a      	ldr	r2, [pc, #424]	@ (80014f8 <HAL_RCC_ClockConfig+0x1f4>)
 800134e:	4293      	cmp	r3, r2
 8001350:	d901      	bls.n	8001356 <HAL_RCC_ClockConfig+0x52>
      {
        return HAL_TIMEOUT;
 8001352:	2303      	movs	r3, #3
 8001354:	e0ca      	b.n	80014ec <HAL_RCC_ClockConfig+0x1e8>
    while ((FLASH->ACR & FLASH_ACR_LATENCY) != FLatency)
 8001356:	4b67      	ldr	r3, [pc, #412]	@ (80014f4 <HAL_RCC_ClockConfig+0x1f0>)
 8001358:	681b      	ldr	r3, [r3, #0]
 800135a:	2207      	movs	r2, #7
 800135c:	4013      	ands	r3, r2
 800135e:	683a      	ldr	r2, [r7, #0]
 8001360:	429a      	cmp	r2, r3
 8001362:	d1ee      	bne.n	8001342 <HAL_RCC_ClockConfig+0x3e>
      }
    }
  }

  /*-------------------------- HCLK Configuration --------------------------*/
  if (((RCC_ClkInitStruct->ClockType) & RCC_CLOCKTYPE_HCLK) == RCC_CLOCKTYPE_HCLK)
 8001364:	687b      	ldr	r3, [r7, #4]
 8001366:	681b      	ldr	r3, [r3, #0]
 8001368:	2202      	movs	r2, #2
 800136a:	4013      	ands	r3, r2
 800136c:	d015      	beq.n	800139a <HAL_RCC_ClockConfig+0x96>
  {
    /* Set the highest APB divider in order to ensure that we do not go through
       a non-spec phase whatever we decrease or increase HCLK. */
    if (((RCC_ClkInitStruct->ClockType) & RCC_CLOCKTYPE_PCLK1) == RCC_CLOCKTYPE_PCLK1)
 800136e:	687b      	ldr	r3, [r7, #4]
 8001370:	681b      	ldr	r3, [r3, #0]
 8001372:	2204      	movs	r2, #4
 8001374:	4013      	ands	r3, r2
 8001376:	d006      	beq.n	8001386 <HAL_RCC_ClockConfig+0x82>
    {
      MODIFY_REG(RCC->CFGR, RCC_CFGR_PPRE, RCC_HCLK_DIV16);
 8001378:	4b60      	ldr	r3, [pc, #384]	@ (80014fc <HAL_RCC_ClockConfig+0x1f8>)
 800137a:	689a      	ldr	r2, [r3, #8]
 800137c:	4b5f      	ldr	r3, [pc, #380]	@ (80014fc <HAL_RCC_ClockConfig+0x1f8>)
 800137e:	21e0      	movs	r1, #224	@ 0xe0
 8001380:	01c9      	lsls	r1, r1, #7
 8001382:	430a      	orrs	r2, r1
 8001384:	609a      	str	r2, [r3, #8]
    }

    /* Set the new HCLK clock divider */
    assert_param(IS_RCC_HCLK(RCC_ClkInitStruct->AHBCLKDivider));
    MODIFY_REG(RCC->CFGR, RCC_CFGR_HPRE, RCC_ClkInitStruct->AHBCLKDivider);
 8001386:	4b5d      	ldr	r3, [pc, #372]	@ (80014fc <HAL_RCC_ClockConfig+0x1f8>)
 8001388:	689b      	ldr	r3, [r3, #8]
 800138a:	4a5d      	ldr	r2, [pc, #372]	@ (8001500 <HAL_RCC_ClockConfig+0x1fc>)
 800138c:	4013      	ands	r3, r2
 800138e:	0019      	movs	r1, r3
 8001390:	687b      	ldr	r3, [r7, #4]
 8001392:	689a      	ldr	r2, [r3, #8]
 8001394:	4b59      	ldr	r3, [pc, #356]	@ (80014fc <HAL_RCC_ClockConfig+0x1f8>)
 8001396:	430a      	orrs	r2, r1
 8001398:	609a      	str	r2, [r3, #8]
  }

  /*------------------------- SYSCLK Configuration ---------------------------*/
  if (((RCC_ClkInitStruct->ClockType) & RCC_CLOCKTYPE_SYSCLK) == RCC_CLOCKTYPE_SYSCLK)
 800139a:	687b      	ldr	r3, [r7, #4]
 800139c:	681b      	ldr	r3, [r3, #0]
 800139e:	2201      	movs	r2, #1
 80013a0:	4013      	ands	r3, r2
 80013a2:	d057      	beq.n	8001454 <HAL_RCC_ClockConfig+0x150>
  {
    assert_param(IS_RCC_SYSCLKSOURCE(RCC_ClkInitStruct->SYSCLKSource));

    /* HSE is selected as System Clock Source */
    if (RCC_ClkInitStruct->SYSCLKSource == RCC_SYSCLKSOURCE_HSE)
 80013a4:	687b      	ldr	r3, [r7, #4]
 80013a6:	685b      	ldr	r3, [r3, #4]
 80013a8:	2b01      	cmp	r3, #1
 80013aa:	d107      	bne.n	80013bc <HAL_RCC_ClockConfig+0xb8>
    {
      /* Check the HSE ready flag */
      if (READ_BIT(RCC->CR, RCC_CR_HSERDY) == 0U)
 80013ac:	4b53      	ldr	r3, [pc, #332]	@ (80014fc <HAL_RCC_ClockConfig+0x1f8>)
 80013ae:	681a      	ldr	r2, [r3, #0]
 80013b0:	2380      	movs	r3, #128	@ 0x80
 80013b2:	029b      	lsls	r3, r3, #10
 80013b4:	4013      	ands	r3, r2
 80013b6:	d12b      	bne.n	8001410 <HAL_RCC_ClockConfig+0x10c>
      {
        return HAL_ERROR;
 80013b8:	2301      	movs	r3, #1
 80013ba:	e097      	b.n	80014ec <HAL_RCC_ClockConfig+0x1e8>
      }
    }
    /* PLL is selected as System Clock Source */
    else if (RCC_ClkInitStruct->SYSCLKSource == RCC_SYSCLKSOURCE_PLLCLK)
 80013bc:	687b      	ldr	r3, [r7, #4]
 80013be:	685b      	ldr	r3, [r3, #4]
 80013c0:	2b02      	cmp	r3, #2
 80013c2:	d107      	bne.n	80013d4 <HAL_RCC_ClockConfig+0xd0>
    {
      /* Check the PLL ready flag */
      if (READ_BIT(RCC->CR, RCC_CR_PLLRDY) == 0U)
 80013c4:	4b4d      	ldr	r3, [pc, #308]	@ (80014fc <HAL_RCC_ClockConfig+0x1f8>)
 80013c6:	681a      	ldr	r2, [r3, #0]
 80013c8:	2380      	movs	r3, #128	@ 0x80
 80013ca:	049b      	lsls	r3, r3, #18
 80013cc:	4013      	ands	r3, r2
 80013ce:	d11f      	bne.n	8001410 <HAL_RCC_ClockConfig+0x10c>
      {
        return HAL_ERROR;
 80013d0:	2301      	movs	r3, #1
 80013d2:	e08b      	b.n	80014ec <HAL_RCC_ClockConfig+0x1e8>
      }
    }
    /* HSI is selected as System Clock Source */
    else if (RCC_ClkInitStruct->SYSCLKSource == RCC_SYSCLKSOURCE_HSI)
 80013d4:	687b      	ldr	r3, [r7, #4]
 80013d6:	685b      	ldr	r3, [r3, #4]
 80013d8:	2b00      	cmp	r3, #0
 80013da:	d107      	bne.n	80013ec <HAL_RCC_ClockConfig+0xe8>
    {
      /* Check the HSI ready flag */
      if (READ_BIT(RCC->CR, RCC_CR_HSIRDY) == 0U)
 80013dc:	4b47      	ldr	r3, [pc, #284]	@ (80014fc <HAL_RCC_ClockConfig+0x1f8>)
 80013de:	681a      	ldr	r2, [r3, #0]
 80013e0:	2380      	movs	r3, #128	@ 0x80
 80013e2:	00db      	lsls	r3, r3, #3
 80013e4:	4013      	ands	r3, r2
 80013e6:	d113      	bne.n	8001410 <HAL_RCC_ClockConfig+0x10c>
      {
        return HAL_ERROR;
 80013e8:	2301      	movs	r3, #1
 80013ea:	e07f      	b.n	80014ec <HAL_RCC_ClockConfig+0x1e8>
      }
    }
    /* LSI is selected as System Clock Source */
    else if (RCC_ClkInitStruct->SYSCLKSource == RCC_SYSCLKSOURCE_LSI)
 80013ec:	687b      	ldr	r3, [r7, #4]
 80013ee:	685b      	ldr	r3, [r3, #4]
 80013f0:	2b03      	cmp	r3, #3
 80013f2:	d106      	bne.n	8001402 <HAL_RCC_ClockConfig+0xfe>
    {
      /* Check the LSI ready flag */
      if (READ_BIT(RCC->CSR, RCC_CSR_LSIRDY) == 0U)
 80013f4:	4b41      	ldr	r3, [pc, #260]	@ (80014fc <HAL_RCC_ClockConfig+0x1f8>)
 80013f6:	6e1b      	ldr	r3, [r3, #96]	@ 0x60
 80013f8:	2202      	movs	r2, #2
 80013fa:	4013      	ands	r3, r2
 80013fc:	d108      	bne.n	8001410 <HAL_RCC_ClockConfig+0x10c>
      {
        return HAL_ERROR;
 80013fe:	2301      	movs	r3, #1
 8001400:	e074      	b.n	80014ec <HAL_RCC_ClockConfig+0x1e8>
    }
    /* LSE is selected as System Clock Source */
    else
    {
      /* Check the LSE ready flag */
      if (READ_BIT(RCC->BDCR, RCC_BDCR_LSERDY) == 0U)
 8001402:	4b3e      	ldr	r3, [pc, #248]	@ (80014fc <HAL_RCC_ClockConfig+0x1f8>)
 8001404:	6ddb      	ldr	r3, [r3, #92]	@ 0x5c
 8001406:	2202      	movs	r2, #2
 8001408:	4013      	ands	r3, r2
 800140a:	d101      	bne.n	8001410 <HAL_RCC_ClockConfig+0x10c>
      {
        return HAL_ERROR;
 800140c:	2301      	movs	r3, #1
 800140e:	e06d      	b.n	80014ec <HAL_RCC_ClockConfig+0x1e8>
      }
    }
    MODIFY_REG(RCC->CFGR, RCC_CFGR_SW, RCC_ClkInitStruct->SYSCLKSource);
 8001410:	4b3a      	ldr	r3, [pc, #232]	@ (80014fc <HAL_RCC_ClockConfig+0x1f8>)
 8001412:	689b      	ldr	r3, [r3, #8]
 8001414:	2207      	movs	r2, #7
 8001416:	4393      	bics	r3, r2
 8001418:	0019      	movs	r1, r3
 800141a:	687b      	ldr	r3, [r7, #4]
 800141c:	685a      	ldr	r2, [r3, #4]
 800141e:	4b37      	ldr	r3, [pc, #220]	@ (80014fc <HAL_RCC_ClockConfig+0x1f8>)
 8001420:	430a      	orrs	r2, r1
 8001422:	609a      	str	r2, [r3, #8]

    /* Get Start Tick*/
    tickstart = HAL_GetTick();
 8001424:	f7ff f99a 	bl	800075c <HAL_GetTick>
 8001428:	0003      	movs	r3, r0
 800142a:	60fb      	str	r3, [r7, #12]

    while (__HAL_RCC_GET_SYSCLK_SOURCE() != (RCC_ClkInitStruct->SYSCLKSource << RCC_CFGR_SWS_Pos))
 800142c:	e009      	b.n	8001442 <HAL_RCC_ClockConfig+0x13e>
    {
      if ((HAL_GetTick() - tickstart) > CLOCKSWITCH_TIMEOUT_VALUE)
 800142e:	f7ff f995 	bl	800075c <HAL_GetTick>
 8001432:	0002      	movs	r2, r0
 8001434:	68fb      	ldr	r3, [r7, #12]
 8001436:	1ad3      	subs	r3, r2, r3
 8001438:	4a2f      	ldr	r2, [pc, #188]	@ (80014f8 <HAL_RCC_ClockConfig+0x1f4>)
 800143a:	4293      	cmp	r3, r2
 800143c:	d901      	bls.n	8001442 <HAL_RCC_ClockConfig+0x13e>
      {
        return HAL_TIMEOUT;
 800143e:	2303      	movs	r3, #3
 8001440:	e054      	b.n	80014ec <HAL_RCC_ClockConfig+0x1e8>
    while (__HAL_RCC_GET_SYSCLK_SOURCE() != (RCC_ClkInitStruct->SYSCLKSource << RCC_CFGR_SWS_Pos))
 8001442:	4b2e      	ldr	r3, [pc, #184]	@ (80014fc <HAL_RCC_ClockConfig+0x1f8>)
 8001444:	689b      	ldr	r3, [r3, #8]
 8001446:	2238      	movs	r2, #56	@ 0x38
 8001448:	401a      	ands	r2, r3
 800144a:	687b      	ldr	r3, [r7, #4]
 800144c:	685b      	ldr	r3, [r3, #4]
 800144e:	00db      	lsls	r3, r3, #3
 8001450:	429a      	cmp	r2, r3
 8001452:	d1ec      	bne.n	800142e <HAL_RCC_ClockConfig+0x12a>
      }
    }
  }

  /* Decreasing the number of wait states because of lower CPU frequency */
  if (FLatency < __HAL_FLASH_GET_LATENCY())
 8001454:	4b27      	ldr	r3, [pc, #156]	@ (80014f4 <HAL_RCC_ClockConfig+0x1f0>)
 8001456:	681b      	ldr	r3, [r3, #0]
 8001458:	2207      	movs	r2, #7
 800145a:	4013      	ands	r3, r2
 800145c:	683a      	ldr	r2, [r7, #0]
 800145e:	429a      	cmp	r2, r3
 8001460:	d21e      	bcs.n	80014a0 <HAL_RCC_ClockConfig+0x19c>
  {
    /* Program the new number of wait states to the LATENCY bits in the FLASH_ACR register */
    __HAL_FLASH_SET_LATENCY(FLatency);
 8001462:	4b24      	ldr	r3, [pc, #144]	@ (80014f4 <HAL_RCC_ClockConfig+0x1f0>)
 8001464:	681b      	ldr	r3, [r3, #0]
 8001466:	2207      	movs	r2, #7
 8001468:	4393      	bics	r3, r2
 800146a:	0019      	movs	r1, r3
 800146c:	4b21      	ldr	r3, [pc, #132]	@ (80014f4 <HAL_RCC_ClockConfig+0x1f0>)
 800146e:	683a      	ldr	r2, [r7, #0]
 8001470:	430a      	orrs	r2, r1
 8001472:	601a      	str	r2, [r3, #0]

    /* Check that the new number of wait states is taken into account to access the Flash
    memory by polling the FLASH_ACR register */
    tickstart = HAL_GetTick();
 8001474:	f7ff f972 	bl	800075c <HAL_GetTick>
 8001478:	0003      	movs	r3, r0
 800147a:	60fb      	str	r3, [r7, #12]

    while ((FLASH->ACR & FLASH_ACR_LATENCY) != FLatency)
 800147c:	e009      	b.n	8001492 <HAL_RCC_ClockConfig+0x18e>
    {
      if ((HAL_GetTick() - tickstart) > CLOCKSWITCH_TIMEOUT_VALUE)
 800147e:	f7ff f96d 	bl	800075c <HAL_GetTick>
 8001482:	0002      	movs	r2, r0
 8001484:	68fb      	ldr	r3, [r7, #12]
 8001486:	1ad3      	subs	r3, r2, r3
 8001488:	4a1b      	ldr	r2, [pc, #108]	@ (80014f8 <HAL_RCC_ClockConfig+0x1f4>)
 800148a:	4293      	cmp	r3, r2
 800148c:	d901      	bls.n	8001492 <HAL_RCC_ClockConfig+0x18e>
      {
        return HAL_TIMEOUT;
 800148e:	2303      	movs	r3, #3
 8001490:	e02c      	b.n	80014ec <HAL_RCC_ClockConfig+0x1e8>
    while ((FLASH->ACR & FLASH_ACR_LATENCY) != FLatency)
 8001492:	4b18      	ldr	r3, [pc, #96]	@ (80014f4 <HAL_RCC_ClockConfig+0x1f0>)
 8001494:	681b      	ldr	r3, [r3, #0]
 8001496:	2207      	movs	r2, #7
 8001498:	4013      	ands	r3, r2
 800149a:	683a      	ldr	r2, [r7, #0]
 800149c:	429a      	cmp	r2, r3
 800149e:	d1ee      	bne.n	800147e <HAL_RCC_ClockConfig+0x17a>
      }
    }
  }

  /*-------------------------- PCLK1 Configuration ---------------------------*/
  if (((RCC_ClkInitStruct->ClockType) & RCC_CLOCKTYPE_PCLK1) == RCC_CLOCKTYPE_PCLK1)
 80014a0:	687b      	ldr	r3, [r7, #4]
 80014a2:	681b      	ldr	r3, [r3, #0]
 80014a4:	2204      	movs	r2, #4
 80014a6:	4013      	ands	r3, r2
 80014a8:	d009      	beq.n	80014be <HAL_RCC_ClockConfig+0x1ba>
  {
    assert_param(IS_RCC_PCLK(RCC_ClkInitStruct->APB1CLKDivider));
    MODIFY_REG(RCC->CFGR, RCC_CFGR_PPRE, RCC_ClkInitStruct->APB1CLKDivider);
 80014aa:	4b14      	ldr	r3, [pc, #80]	@ (80014fc <HAL_RCC_ClockConfig+0x1f8>)
 80014ac:	689b      	ldr	r3, [r3, #8]
 80014ae:	4a15      	ldr	r2, [pc, #84]	@ (8001504 <HAL_RCC_ClockConfig+0x200>)
 80014b0:	4013      	ands	r3, r2
 80014b2:	0019      	movs	r1, r3
 80014b4:	687b      	ldr	r3, [r7, #4]
 80014b6:	68da      	ldr	r2, [r3, #12]
 80014b8:	4b10      	ldr	r3, [pc, #64]	@ (80014fc <HAL_RCC_ClockConfig+0x1f8>)
 80014ba:	430a      	orrs	r2, r1
 80014bc:	609a      	str	r2, [r3, #8]
  }

  /* Update the SystemCoreClock global variable */
  SystemCoreClock = (HAL_RCC_GetSysClockFreq() >> ((AHBPrescTable[(RCC->CFGR & RCC_CFGR_HPRE) >> RCC_CFGR_HPRE_Pos]) & 0x1FU));
 80014be:	f000 f829 	bl	8001514 <HAL_RCC_GetSysClockFreq>
 80014c2:	0001      	movs	r1, r0
 80014c4:	4b0d      	ldr	r3, [pc, #52]	@ (80014fc <HAL_RCC_ClockConfig+0x1f8>)
 80014c6:	689b      	ldr	r3, [r3, #8]
 80014c8:	0a1b      	lsrs	r3, r3, #8
 80014ca:	220f      	movs	r2, #15
 80014cc:	401a      	ands	r2, r3
 80014ce:	4b0e      	ldr	r3, [pc, #56]	@ (8001508 <HAL_RCC_ClockConfig+0x204>)
 80014d0:	0092      	lsls	r2, r2, #2
 80014d2:	58d3      	ldr	r3, [r2, r3]
 80014d4:	221f      	movs	r2, #31
 80014d6:	4013      	ands	r3, r2
 80014d8:	000a      	movs	r2, r1
 80014da:	40da      	lsrs	r2, r3
 80014dc:	4b0b      	ldr	r3, [pc, #44]	@ (800150c <HAL_RCC_ClockConfig+0x208>)
 80014de:	601a      	str	r2, [r3, #0]

  /* Configure the source of time base considering new system clocks settings*/
  return HAL_InitTick(uwTickPrio);
 80014e0:	4b0b      	ldr	r3, [pc, #44]	@ (8001510 <HAL_RCC_ClockConfig+0x20c>)
 80014e2:	681b      	ldr	r3, [r3, #0]
 80014e4:	0018      	movs	r0, r3
 80014e6:	f7ff f8dd 	bl	80006a4 <HAL_InitTick>
 80014ea:	0003      	movs	r3, r0
}
 80014ec:	0018      	movs	r0, r3
 80014ee:	46bd      	mov	sp, r7
 80014f0:	b004      	add	sp, #16
 80014f2:	bd80      	pop	{r7, pc}
 80014f4:	40022000 	.word	0x40022000
 80014f8:	00001388 	.word	0x00001388
 80014fc:	40021000 	.word	0x40021000
 8001500:	fffff0ff 	.word	0xfffff0ff
 8001504:	ffff8fff 	.word	0xffff8fff
 8001508:	080026f8 	.word	0x080026f8
 800150c:	20000000 	.word	0x20000000
 8001510:	20000004 	.word	0x20000004

08001514 <HAL_RCC_GetSysClockFreq>:
  *
  *
  * @retval SYSCLK frequency
  */
uint32_t HAL_RCC_GetSysClockFreq(void)
{
 8001514:	b580      	push	{r7, lr}
 8001516:	b086      	sub	sp, #24
 8001518:	af00      	add	r7, sp, #0
  uint32_t pllvco, pllsource, pllr, pllm, hsidiv;
  uint32_t sysclockfreq;

  if (__HAL_RCC_GET_SYSCLK_SOURCE() == RCC_SYSCLKSOURCE_STATUS_HSI)
 800151a:	4b3c      	ldr	r3, [pc, #240]	@ (800160c <HAL_RCC_GetSysClockFreq+0xf8>)
 800151c:	689b      	ldr	r3, [r3, #8]
 800151e:	2238      	movs	r2, #56	@ 0x38
 8001520:	4013      	ands	r3, r2
 8001522:	d10f      	bne.n	8001544 <HAL_RCC_GetSysClockFreq+0x30>
  {
    /* HSISYS can be derived for HSI16 */
    hsidiv = (1UL << ((READ_BIT(RCC->CR, RCC_CR_HSIDIV)) >> RCC_CR_HSIDIV_Pos));
 8001524:	4b39      	ldr	r3, [pc, #228]	@ (800160c <HAL_RCC_GetSysClockFreq+0xf8>)
 8001526:	681b      	ldr	r3, [r3, #0]
 8001528:	0adb      	lsrs	r3, r3, #11
 800152a:	2207      	movs	r2, #7
 800152c:	4013      	ands	r3, r2
 800152e:	2201      	movs	r2, #1
 8001530:	409a      	lsls	r2, r3
 8001532:	0013      	movs	r3, r2
 8001534:	603b      	str	r3, [r7, #0]

    /* HSI used as system clock source */
    sysclockfreq = (HSI_VALUE / hsidiv);
 8001536:	6839      	ldr	r1, [r7, #0]
 8001538:	4835      	ldr	r0, [pc, #212]	@ (8001610 <HAL_RCC_GetSysClockFreq+0xfc>)
 800153a:	f7fe fde1 	bl	8000100 <__udivsi3>
 800153e:	0003      	movs	r3, r0
 8001540:	613b      	str	r3, [r7, #16]
 8001542:	e05d      	b.n	8001600 <HAL_RCC_GetSysClockFreq+0xec>
  }
  else if (__HAL_RCC_GET_SYSCLK_SOURCE() == RCC_SYSCLKSOURCE_STATUS_HSE)
 8001544:	4b31      	ldr	r3, [pc, #196]	@ (800160c <HAL_RCC_GetSysClockFreq+0xf8>)
 8001546:	689b      	ldr	r3, [r3, #8]
 8001548:	2238      	movs	r2, #56	@ 0x38
 800154a:	4013      	ands	r3, r2
 800154c:	2b08      	cmp	r3, #8
 800154e:	d102      	bne.n	8001556 <HAL_RCC_GetSysClockFreq+0x42>
  {
    /* HSE used as system clock source */
    sysclockfreq = HSE_VALUE;
 8001550:	4b30      	ldr	r3, [pc, #192]	@ (8001614 <HAL_RCC_GetSysClockFreq+0x100>)
 8001552:	613b      	str	r3, [r7, #16]
 8001554:	e054      	b.n	8001600 <HAL_RCC_GetSysClockFreq+0xec>
  }
  else if (__HAL_RCC_GET_SYSCLK_SOURCE() == RCC_SYSCLKSOURCE_STATUS_PLLCLK)
 8001556:	4b2d      	ldr	r3, [pc, #180]	@ (800160c <HAL_RCC_GetSysClockFreq+0xf8>)
 8001558:	689b      	ldr	r3, [r3, #8]
 800155a:	2238      	movs	r2, #56	@ 0x38
 800155c:	4013      	ands	r3, r2
 800155e:	2b10      	cmp	r3, #16
 8001560:	d138      	bne.n	80015d4 <HAL_RCC_GetSysClockFreq+0xc0>
    /* PLL used as system clock  source */

    /* PLL_VCO = ((HSE_VALUE or HSI_VALUE)/ PLLM) * PLLN
    SYSCLK = PLL_VCO / PLLR
    */
    pllsource = (RCC->PLLCFGR & RCC_PLLCFGR_PLLSRC);
 8001562:	4b2a      	ldr	r3, [pc, #168]	@ (800160c <HAL_RCC_GetSysClockFreq+0xf8>)
 8001564:	68db      	ldr	r3, [r3, #12]
 8001566:	2203      	movs	r2, #3
 8001568:	4013      	ands	r3, r2
 800156a:	60fb      	str	r3, [r7, #12]
    pllm = ((RCC->PLLCFGR & RCC_PLLCFGR_PLLM) >> RCC_PLLCFGR_PLLM_Pos) + 1U ;
 800156c:	4b27      	ldr	r3, [pc, #156]	@ (800160c <HAL_RCC_GetSysClockFreq+0xf8>)
 800156e:	68db      	ldr	r3, [r3, #12]
 8001570:	091b      	lsrs	r3, r3, #4
 8001572:	2207      	movs	r2, #7
 8001574:	4013      	ands	r3, r2
 8001576:	3301      	adds	r3, #1
 8001578:	60bb      	str	r3, [r7, #8]

    switch (pllsource)
 800157a:	68fb      	ldr	r3, [r7, #12]
 800157c:	2b03      	cmp	r3, #3
 800157e:	d10d      	bne.n	800159c <HAL_RCC_GetSysClockFreq+0x88>
    {
      case RCC_PLLSOURCE_HSE:  /* HSE used as PLL clock source */
        pllvco = (HSE_VALUE / pllm) * ((RCC->PLLCFGR & RCC_PLLCFGR_PLLN) >> RCC_PLLCFGR_PLLN_Pos);
 8001580:	68b9      	ldr	r1, [r7, #8]
 8001582:	4824      	ldr	r0, [pc, #144]	@ (8001614 <HAL_RCC_GetSysClockFreq+0x100>)
 8001584:	f7fe fdbc 	bl	8000100 <__udivsi3>
 8001588:	0003      	movs	r3, r0
 800158a:	0019      	movs	r1, r3
 800158c:	4b1f      	ldr	r3, [pc, #124]	@ (800160c <HAL_RCC_GetSysClockFreq+0xf8>)
 800158e:	68db      	ldr	r3, [r3, #12]
 8001590:	0a1b      	lsrs	r3, r3, #8
 8001592:	227f      	movs	r2, #127	@ 0x7f
 8001594:	4013      	ands	r3, r2
 8001596:	434b      	muls	r3, r1
 8001598:	617b      	str	r3, [r7, #20]
        break;
 800159a:	e00d      	b.n	80015b8 <HAL_RCC_GetSysClockFreq+0xa4>

      case RCC_PLLSOURCE_HSI:  /* HSI16 used as PLL clock source */
      default:                 /* HSI16 used as PLL clock source */
        pllvco = (HSI_VALUE / pllm) * ((RCC->PLLCFGR & RCC_PLLCFGR_PLLN) >> RCC_PLLCFGR_PLLN_Pos) ;
 800159c:	68b9      	ldr	r1, [r7, #8]
 800159e:	481c      	ldr	r0, [pc, #112]	@ (8001610 <HAL_RCC_GetSysClockFreq+0xfc>)
 80015a0:	f7fe fdae 	bl	8000100 <__udivsi3>
 80015a4:	0003      	movs	r3, r0
 80015a6:	0019      	movs	r1, r3
 80015a8:	4b18      	ldr	r3, [pc, #96]	@ (800160c <HAL_RCC_GetSysClockFreq+0xf8>)
 80015aa:	68db      	ldr	r3, [r3, #12]
 80015ac:	0a1b      	lsrs	r3, r3, #8
 80015ae:	227f      	movs	r2, #127	@ 0x7f
 80015b0:	4013      	ands	r3, r2
 80015b2:	434b      	muls	r3, r1
 80015b4:	617b      	str	r3, [r7, #20]
        break;
 80015b6:	46c0      	nop			@ (mov r8, r8)
    }
    pllr = (((RCC->PLLCFGR & RCC_PLLCFGR_PLLR) >> RCC_PLLCFGR_PLLR_Pos) + 1U);
 80015b8:	4b14      	ldr	r3, [pc, #80]	@ (800160c <HAL_RCC_GetSysClockFreq+0xf8>)
 80015ba:	68db      	ldr	r3, [r3, #12]
 80015bc:	0f5b      	lsrs	r3, r3, #29
 80015be:	2207      	movs	r2, #7
 80015c0:	4013      	ands	r3, r2
 80015c2:	3301      	adds	r3, #1
 80015c4:	607b      	str	r3, [r7, #4]
    sysclockfreq = pllvco / pllr;
 80015c6:	6879      	ldr	r1, [r7, #4]
 80015c8:	6978      	ldr	r0, [r7, #20]
 80015ca:	f7fe fd99 	bl	8000100 <__udivsi3>
 80015ce:	0003      	movs	r3, r0
 80015d0:	613b      	str	r3, [r7, #16]
 80015d2:	e015      	b.n	8001600 <HAL_RCC_GetSysClockFreq+0xec>
  }
  else if (__HAL_RCC_GET_SYSCLK_SOURCE() == RCC_SYSCLKSOURCE_STATUS_LSE)
 80015d4:	4b0d      	ldr	r3, [pc, #52]	@ (800160c <HAL_RCC_GetSysClockFreq+0xf8>)
 80015d6:	689b      	ldr	r3, [r3, #8]
 80015d8:	2238      	movs	r2, #56	@ 0x38
 80015da:	4013      	ands	r3, r2
 80015dc:	2b20      	cmp	r3, #32
 80015de:	d103      	bne.n	80015e8 <HAL_RCC_GetSysClockFreq+0xd4>
  {
    /* LSE used as system clock source */
    sysclockfreq = LSE_VALUE;
 80015e0:	2380      	movs	r3, #128	@ 0x80
 80015e2:	021b      	lsls	r3, r3, #8
 80015e4:	613b      	str	r3, [r7, #16]
 80015e6:	e00b      	b.n	8001600 <HAL_RCC_GetSysClockFreq+0xec>
  }
  else if (__HAL_RCC_GET_SYSCLK_SOURCE() == RCC_SYSCLKSOURCE_STATUS_LSI)
 80015e8:	4b08      	ldr	r3, [pc, #32]	@ (800160c <HAL_RCC_GetSysClockFreq+0xf8>)
 80015ea:	689b      	ldr	r3, [r3, #8]
 80015ec:	2238      	movs	r2, #56	@ 0x38
 80015ee:	4013      	ands	r3, r2
 80015f0:	2b18      	cmp	r3, #24
 80015f2:	d103      	bne.n	80015fc <HAL_RCC_GetSysClockFreq+0xe8>
  {
    /* LSI used as system clock source */
    sysclockfreq = LSI_VALUE;
 80015f4:	23fa      	movs	r3, #250	@ 0xfa
 80015f6:	01db      	lsls	r3, r3, #7
 80015f8:	613b      	str	r3, [r7, #16]
 80015fa:	e001      	b.n	8001600 <HAL_RCC_GetSysClockFreq+0xec>
  }
  else
  {
    sysclockfreq = 0U;
 80015fc:	2300      	movs	r3, #0
 80015fe:	613b      	str	r3, [r7, #16]
  }

  return sysclockfreq;
 8001600:	693b      	ldr	r3, [r7, #16]
}
 8001602:	0018      	movs	r0, r3
 8001604:	46bd      	mov	sp, r7
 8001606:	b006      	add	sp, #24
 8001608:	bd80      	pop	{r7, pc}
 800160a:	46c0      	nop			@ (mov r8, r8)
 800160c:	40021000 	.word	0x40021000
 8001610:	00f42400 	.word	0x00f42400
 8001614:	007a1200 	.word	0x007a1200

08001618 <HAL_TIM_Base_Init>:
  *         Ex: call @ref HAL_TIM_Base_DeInit() before HAL_TIM_Base_Init()
  * @param  htim TIM Base handle
  * @retval HAL status
  */
HAL_StatusTypeDef HAL_TIM_Base_Init(TIM_HandleTypeDef *htim)
{
 8001618:	b580      	push	{r7, lr}
 800161a:	b082      	sub	sp, #8
 800161c:	af00      	add	r7, sp, #0
 800161e:	6078      	str	r0, [r7, #4]
  /* Check the TIM handle allocation */
  if (htim == NULL)
 8001620:	687b      	ldr	r3, [r7, #4]
 8001622:	2b00      	cmp	r3, #0
 8001624:	d101      	bne.n	800162a <HAL_TIM_Base_Init+0x12>
  {
    return HAL_ERROR;
 8001626:	2301      	movs	r3, #1
 8001628:	e04a      	b.n	80016c0 <HAL_TIM_Base_Init+0xa8>
  assert_param(IS_TIM_COUNTER_MODE(htim->Init.CounterMode));
  assert_param(IS_TIM_CLOCKDIVISION_DIV(htim->Init.ClockDivision));
  assert_param(IS_TIM_PERIOD(htim, htim->Init.Period));
  assert_param(IS_TIM_AUTORELOAD_PRELOAD(htim->Init.AutoReloadPreload));

  if (htim->State == HAL_TIM_STATE_RESET)
 800162a:	687b      	ldr	r3, [r7, #4]
 800162c:	223d      	movs	r2, #61	@ 0x3d
 800162e:	5c9b      	ldrb	r3, [r3, r2]
 8001630:	b2db      	uxtb	r3, r3
 8001632:	2b00      	cmp	r3, #0
 8001634:	d107      	bne.n	8001646 <HAL_TIM_Base_Init+0x2e>
  {
    /* Allocate lock resource and initialize it */
    htim->Lock = HAL_UNLOCKED;
 8001636:	687b      	ldr	r3, [r7, #4]
 8001638:	223c      	movs	r2, #60	@ 0x3c
 800163a:	2100      	movs	r1, #0
 800163c:	5499      	strb	r1, [r3, r2]
    }
    /* Init the low level hardware : GPIO, CLOCK, NVIC */
    htim->Base_MspInitCallback(htim);
#else
    /* Init the low level hardware : GPIO, CLOCK, NVIC */
    HAL_TIM_Base_MspInit(htim);
 800163e:	687b      	ldr	r3, [r7, #4]
 8001640:	0018      	movs	r0, r3
 8001642:	f7fe ff4f 	bl	80004e4 <HAL_TIM_Base_MspInit>
#endif /* USE_HAL_TIM_REGISTER_CALLBACKS */
  }

  /* Set the TIM state */
  htim->State = HAL_TIM_STATE_BUSY;
 8001646:	687b      	ldr	r3, [r7, #4]
 8001648:	223d      	movs	r2, #61	@ 0x3d
 800164a:	2102      	movs	r1, #2
 800164c:	5499      	strb	r1, [r3, r2]

  /* Set the Time Base configuration */
  TIM_Base_SetConfig(htim->Instance, &htim->Init);
 800164e:	687b      	ldr	r3, [r7, #4]
 8001650:	681a      	ldr	r2, [r3, #0]
 8001652:	687b      	ldr	r3, [r7, #4]
 8001654:	3304      	adds	r3, #4
 8001656:	0019      	movs	r1, r3
 8001658:	0010      	movs	r0, r2
 800165a:	f000 fbe9 	bl	8001e30 <TIM_Base_SetConfig>

  /* Initialize the DMA burst operation state */
  htim->DMABurstState = HAL_DMA_BURST_STATE_READY;
 800165e:	687b      	ldr	r3, [r7, #4]
 8001660:	2248      	movs	r2, #72	@ 0x48
 8001662:	2101      	movs	r1, #1
 8001664:	5499      	strb	r1, [r3, r2]

  /* Initialize the TIM channels state */
  TIM_CHANNEL_STATE_SET_ALL(htim, HAL_TIM_CHANNEL_STATE_READY);
 8001666:	687b      	ldr	r3, [r7, #4]
 8001668:	223e      	movs	r2, #62	@ 0x3e
 800166a:	2101      	movs	r1, #1
 800166c:	5499      	strb	r1, [r3, r2]
 800166e:	687b      	ldr	r3, [r7, #4]
 8001670:	223f      	movs	r2, #63	@ 0x3f
 8001672:	2101      	movs	r1, #1
 8001674:	5499      	strb	r1, [r3, r2]
 8001676:	687b      	ldr	r3, [r7, #4]
 8001678:	2240      	movs	r2, #64	@ 0x40
 800167a:	2101      	movs	r1, #1
 800167c:	5499      	strb	r1, [r3, r2]
 800167e:	687b      	ldr	r3, [r7, #4]
 8001680:	2241      	movs	r2, #65	@ 0x41
 8001682:	2101      	movs	r1, #1
 8001684:	5499      	strb	r1, [r3, r2]
 8001686:	687b      	ldr	r3, [r7, #4]
 8001688:	2242      	movs	r2, #66	@ 0x42
 800168a:	2101      	movs	r1, #1
 800168c:	5499      	strb	r1, [r3, r2]
 800168e:	687b      	ldr	r3, [r7, #4]
 8001690:	2243      	movs	r2, #67	@ 0x43
 8001692:	2101      	movs	r1, #1
 8001694:	5499      	strb	r1, [r3, r2]
  TIM_CHANNEL_N_STATE_SET_ALL(htim, HAL_TIM_CHANNEL_STATE_READY);
 8001696:	687b      	ldr	r3, [r7, #4]
 8001698:	2244      	movs	r2, #68	@ 0x44
 800169a:	2101      	movs	r1, #1
 800169c:	5499      	strb	r1, [r3, r2]
 800169e:	687b      	ldr	r3, [r7, #4]
 80016a0:	2245      	movs	r2, #69	@ 0x45
 80016a2:	2101      	movs	r1, #1
 80016a4:	5499      	strb	r1, [r3, r2]
 80016a6:	687b      	ldr	r3, [r7, #4]
 80016a8:	2246      	movs	r2, #70	@ 0x46
 80016aa:	2101      	movs	r1, #1
 80016ac:	5499      	strb	r1, [r3, r2]
 80016ae:	687b      	ldr	r3, [r7, #4]
 80016b0:	2247      	movs	r2, #71	@ 0x47
 80016b2:	2101      	movs	r1, #1
 80016b4:	5499      	strb	r1, [r3, r2]

  /* Initialize the TIM state*/
  htim->State = HAL_TIM_STATE_READY;
 80016b6:	687b      	ldr	r3, [r7, #4]
 80016b8:	223d      	movs	r2, #61	@ 0x3d
 80016ba:	2101      	movs	r1, #1
 80016bc:	5499      	strb	r1, [r3, r2]

  return HAL_OK;
 80016be:	2300      	movs	r3, #0
}
 80016c0:	0018      	movs	r0, r3
 80016c2:	46bd      	mov	sp, r7
 80016c4:	b002      	add	sp, #8
 80016c6:	bd80      	pop	{r7, pc}

080016c8 <HAL_TIM_Base_Start_IT>:
  * @brief  Starts the TIM Base generation in interrupt mode.
  * @param  htim TIM Base handle
  * @retval HAL status
  */
HAL_StatusTypeDef HAL_TIM_Base_Start_IT(TIM_HandleTypeDef *htim)
{
 80016c8:	b580      	push	{r7, lr}
 80016ca:	b084      	sub	sp, #16
 80016cc:	af00      	add	r7, sp, #0
 80016ce:	6078      	str	r0, [r7, #4]

  /* Check the parameters */
  assert_param(IS_TIM_INSTANCE(htim->Instance));

  /* Check the TIM state */
  if (htim->State != HAL_TIM_STATE_READY)
 80016d0:	687b      	ldr	r3, [r7, #4]
 80016d2:	223d      	movs	r2, #61	@ 0x3d
 80016d4:	5c9b      	ldrb	r3, [r3, r2]
 80016d6:	b2db      	uxtb	r3, r3
 80016d8:	2b01      	cmp	r3, #1
 80016da:	d001      	beq.n	80016e0 <HAL_TIM_Base_Start_IT+0x18>
  {
    return HAL_ERROR;
 80016dc:	2301      	movs	r3, #1
 80016de:	e037      	b.n	8001750 <HAL_TIM_Base_Start_IT+0x88>
  }

  /* Set the TIM state */
  htim->State = HAL_TIM_STATE_BUSY;
 80016e0:	687b      	ldr	r3, [r7, #4]
 80016e2:	223d      	movs	r2, #61	@ 0x3d
 80016e4:	2102      	movs	r1, #2
 80016e6:	5499      	strb	r1, [r3, r2]

  /* Enable the TIM Update interrupt */
  __HAL_TIM_ENABLE_IT(htim, TIM_IT_UPDATE);
 80016e8:	687b      	ldr	r3, [r7, #4]
 80016ea:	681b      	ldr	r3, [r3, #0]
 80016ec:	68da      	ldr	r2, [r3, #12]
 80016ee:	687b      	ldr	r3, [r7, #4]
 80016f0:	681b      	ldr	r3, [r3, #0]
 80016f2:	2101      	movs	r1, #1
 80016f4:	430a      	orrs	r2, r1
 80016f6:	60da      	str	r2, [r3, #12]

  /* Enable the Peripheral, except in trigger mode where enable is automatically done with trigger */
  if (IS_TIM_SLAVE_INSTANCE(htim->Instance))
 80016f8:	687b      	ldr	r3, [r7, #4]
 80016fa:	681b      	ldr	r3, [r3, #0]
 80016fc:	4a16      	ldr	r2, [pc, #88]	@ (8001758 <HAL_TIM_Base_Start_IT+0x90>)
 80016fe:	4293      	cmp	r3, r2
 8001700:	d004      	beq.n	800170c <HAL_TIM_Base_Start_IT+0x44>
 8001702:	687b      	ldr	r3, [r7, #4]
 8001704:	681b      	ldr	r3, [r3, #0]
 8001706:	4a15      	ldr	r2, [pc, #84]	@ (800175c <HAL_TIM_Base_Start_IT+0x94>)
 8001708:	4293      	cmp	r3, r2
 800170a:	d116      	bne.n	800173a <HAL_TIM_Base_Start_IT+0x72>
  {
    tmpsmcr = htim->Instance->SMCR & TIM_SMCR_SMS;
 800170c:	687b      	ldr	r3, [r7, #4]
 800170e:	681b      	ldr	r3, [r3, #0]
 8001710:	689b      	ldr	r3, [r3, #8]
 8001712:	4a13      	ldr	r2, [pc, #76]	@ (8001760 <HAL_TIM_Base_Start_IT+0x98>)
 8001714:	4013      	ands	r3, r2
 8001716:	60fb      	str	r3, [r7, #12]
    if (!IS_TIM_SLAVEMODE_TRIGGER_ENABLED(tmpsmcr))
 8001718:	68fb      	ldr	r3, [r7, #12]
 800171a:	2b06      	cmp	r3, #6
 800171c:	d016      	beq.n	800174c <HAL_TIM_Base_Start_IT+0x84>
 800171e:	68fa      	ldr	r2, [r7, #12]
 8001720:	2380      	movs	r3, #128	@ 0x80
 8001722:	025b      	lsls	r3, r3, #9
 8001724:	429a      	cmp	r2, r3
 8001726:	d011      	beq.n	800174c <HAL_TIM_Base_Start_IT+0x84>
    {
      __HAL_TIM_ENABLE(htim);
 8001728:	687b      	ldr	r3, [r7, #4]
 800172a:	681b      	ldr	r3, [r3, #0]
 800172c:	681a      	ldr	r2, [r3, #0]
 800172e:	687b      	ldr	r3, [r7, #4]
 8001730:	681b      	ldr	r3, [r3, #0]
 8001732:	2101      	movs	r1, #1
 8001734:	430a      	orrs	r2, r1
 8001736:	601a      	str	r2, [r3, #0]
    if (!IS_TIM_SLAVEMODE_TRIGGER_ENABLED(tmpsmcr))
 8001738:	e008      	b.n	800174c <HAL_TIM_Base_Start_IT+0x84>
    }
  }
  else
  {
    __HAL_TIM_ENABLE(htim);
 800173a:	687b      	ldr	r3, [r7, #4]
 800173c:	681b      	ldr	r3, [r3, #0]
 800173e:	681a      	ldr	r2, [r3, #0]
 8001740:	687b      	ldr	r3, [r7, #4]
 8001742:	681b      	ldr	r3, [r3, #0]
 8001744:	2101      	movs	r1, #1
 8001746:	430a      	orrs	r2, r1
 8001748:	601a      	str	r2, [r3, #0]
 800174a:	e000      	b.n	800174e <HAL_TIM_Base_Start_IT+0x86>
    if (!IS_TIM_SLAVEMODE_TRIGGER_ENABLED(tmpsmcr))
 800174c:	46c0      	nop			@ (mov r8, r8)
  }

  /* Return function status */
  return HAL_OK;
 800174e:	2300      	movs	r3, #0
}
 8001750:	0018      	movs	r0, r3
 8001752:	46bd      	mov	sp, r7
 8001754:	b004      	add	sp, #16
 8001756:	bd80      	pop	{r7, pc}
 8001758:	40012c00 	.word	0x40012c00
 800175c:	40000400 	.word	0x40000400
 8001760:	00010007 	.word	0x00010007

08001764 <HAL_TIM_PWM_Init>:
  *         Ex: call @ref HAL_TIM_PWM_DeInit() before HAL_TIM_PWM_Init()
  * @param  htim TIM PWM handle
  * @retval HAL status
  */
HAL_StatusTypeDef HAL_TIM_PWM_Init(TIM_HandleTypeDef *htim)
{
 8001764:	b580      	push	{r7, lr}
 8001766:	b082      	sub	sp, #8
 8001768:	af00      	add	r7, sp, #0
 800176a:	6078      	str	r0, [r7, #4]
  /* Check the TIM handle allocation */
  if (htim == NULL)
 800176c:	687b      	ldr	r3, [r7, #4]
 800176e:	2b00      	cmp	r3, #0
 8001770:	d101      	bne.n	8001776 <HAL_TIM_PWM_Init+0x12>
  {
    return HAL_ERROR;
 8001772:	2301      	movs	r3, #1
 8001774:	e04a      	b.n	800180c <HAL_TIM_PWM_Init+0xa8>
  assert_param(IS_TIM_COUNTER_MODE(htim->Init.CounterMode));
  assert_param(IS_TIM_CLOCKDIVISION_DIV(htim->Init.ClockDivision));
  assert_param(IS_TIM_PERIOD(htim, htim->Init.Period));
  assert_param(IS_TIM_AUTORELOAD_PRELOAD(htim->Init.AutoReloadPreload));

  if (htim->State == HAL_TIM_STATE_RESET)
 8001776:	687b      	ldr	r3, [r7, #4]
 8001778:	223d      	movs	r2, #61	@ 0x3d
 800177a:	5c9b      	ldrb	r3, [r3, r2]
 800177c:	b2db      	uxtb	r3, r3
 800177e:	2b00      	cmp	r3, #0
 8001780:	d107      	bne.n	8001792 <HAL_TIM_PWM_Init+0x2e>
  {
    /* Allocate lock resource and initialize it */
    htim->Lock = HAL_UNLOCKED;
 8001782:	687b      	ldr	r3, [r7, #4]
 8001784:	223c      	movs	r2, #60	@ 0x3c
 8001786:	2100      	movs	r1, #0
 8001788:	5499      	strb	r1, [r3, r2]
    }
    /* Init the low level hardware : GPIO, CLOCK, NVIC */
    htim->PWM_MspInitCallback(htim);
#else
    /* Init the low level hardware : GPIO, CLOCK, NVIC and DMA */
    HAL_TIM_PWM_MspInit(htim);
 800178a:	687b      	ldr	r3, [r7, #4]
 800178c:	0018      	movs	r0, r3
 800178e:	f000 f841 	bl	8001814 <HAL_TIM_PWM_MspInit>
#endif /* USE_HAL_TIM_REGISTER_CALLBACKS */
  }

  /* Set the TIM state */
  htim->State = HAL_TIM_STATE_BUSY;
 8001792:	687b      	ldr	r3, [r7, #4]
 8001794:	223d      	movs	r2, #61	@ 0x3d
 8001796:	2102      	movs	r1, #2
 8001798:	5499      	strb	r1, [r3, r2]

  /* Init the base time for the PWM */
  TIM_Base_SetConfig(htim->Instance, &htim->Init);
 800179a:	687b      	ldr	r3, [r7, #4]
 800179c:	681a      	ldr	r2, [r3, #0]
 800179e:	687b      	ldr	r3, [r7, #4]
 80017a0:	3304      	adds	r3, #4
 80017a2:	0019      	movs	r1, r3
 80017a4:	0010      	movs	r0, r2
 80017a6:	f000 fb43 	bl	8001e30 <TIM_Base_SetConfig>

  /* Initialize the DMA burst operation state */
  htim->DMABurstState = HAL_DMA_BURST_STATE_READY;
 80017aa:	687b      	ldr	r3, [r7, #4]
 80017ac:	2248      	movs	r2, #72	@ 0x48
 80017ae:	2101      	movs	r1, #1
 80017b0:	5499      	strb	r1, [r3, r2]

  /* Initialize the TIM channels state */
  TIM_CHANNEL_STATE_SET_ALL(htim, HAL_TIM_CHANNEL_STATE_READY);
 80017b2:	687b      	ldr	r3, [r7, #4]
 80017b4:	223e      	movs	r2, #62	@ 0x3e
 80017b6:	2101      	movs	r1, #1
 80017b8:	5499      	strb	r1, [r3, r2]
 80017ba:	687b      	ldr	r3, [r7, #4]
 80017bc:	223f      	movs	r2, #63	@ 0x3f
 80017be:	2101      	movs	r1, #1
 80017c0:	5499      	strb	r1, [r3, r2]
 80017c2:	687b      	ldr	r3, [r7, #4]
 80017c4:	2240      	movs	r2, #64	@ 0x40
 80017c6:	2101      	movs	r1, #1
 80017c8:	5499      	strb	r1, [r3, r2]
 80017ca:	687b      	ldr	r3, [r7, #4]
 80017cc:	2241      	movs	r2, #65	@ 0x41
 80017ce:	2101      	movs	r1, #1
 80017d0:	5499      	strb	r1, [r3, r2]
 80017d2:	687b      	ldr	r3, [r7, #4]
 80017d4:	2242      	movs	r2, #66	@ 0x42
 80017d6:	2101      	movs	r1, #1
 80017d8:	5499      	strb	r1, [r3, r2]
 80017da:	687b      	ldr	r3, [r7, #4]
 80017dc:	2243      	movs	r2, #67	@ 0x43
 80017de:	2101      	movs	r1, #1
 80017e0:	5499      	strb	r1, [r3, r2]
  TIM_CHANNEL_N_STATE_SET_ALL(htim, HAL_TIM_CHANNEL_STATE_READY);
 80017e2:	687b      	ldr	r3, [r7, #4]
 80017e4:	2244      	movs	r2, #68	@ 0x44
 80017e6:	2101      	movs	r1, #1
 80017e8:	5499      	strb	r1, [r3, r2]
 80017ea:	687b      	ldr	r3, [r7, #4]
 80017ec:	2245      	movs	r2, #69	@ 0x45
 80017ee:	2101      	movs	r1, #1
 80017f0:	5499      	strb	r1, [r3, r2]
 80017f2:	687b      	ldr	r3, [r7, #4]
 80017f4:	2246      	movs	r2, #70	@ 0x46
 80017f6:	2101      	movs	r1, #1
 80017f8:	5499      	strb	r1, [r3, r2]
 80017fa:	687b      	ldr	r3, [r7, #4]
 80017fc:	2247      	movs	r2, #71	@ 0x47
 80017fe:	2101      	movs	r1, #1
 8001800:	5499      	strb	r1, [r3, r2]

  /* Initialize the TIM state*/
  htim->State = HAL_TIM_STATE_READY;
 8001802:	687b      	ldr	r3, [r7, #4]
 8001804:	223d      	movs	r2, #61	@ 0x3d
 8001806:	2101      	movs	r1, #1
 8001808:	5499      	strb	r1, [r3, r2]

  return HAL_OK;
 800180a:	2300      	movs	r3, #0
}
 800180c:	0018      	movs	r0, r3
 800180e:	46bd      	mov	sp, r7
 8001810:	b002      	add	sp, #8
 8001812:	bd80      	pop	{r7, pc}

08001814 <HAL_TIM_PWM_MspInit>:
  * @brief  Initializes the TIM PWM MSP.
  * @param  htim TIM PWM handle
  * @retval None
  */
__weak void HAL_TIM_PWM_MspInit(TIM_HandleTypeDef *htim)
{
 8001814:	b580      	push	{r7, lr}
 8001816:	b082      	sub	sp, #8
 8001818:	af00      	add	r7, sp, #0
 800181a:	6078      	str	r0, [r7, #4]
  UNUSED(htim);

  /* NOTE : This function should not be modified, when the callback is needed,
            the HAL_TIM_PWM_MspInit could be implemented in the user file
   */
}
 800181c:	46c0      	nop			@ (mov r8, r8)
 800181e:	46bd      	mov	sp, r7
 8001820:	b002      	add	sp, #8
 8001822:	bd80      	pop	{r7, pc}

08001824 <HAL_TIM_IRQHandler>:
  * @brief  This function handles TIM interrupts requests.
  * @param  htim TIM  handle
  * @retval None
  */
void HAL_TIM_IRQHandler(TIM_HandleTypeDef *htim)
{
 8001824:	b580      	push	{r7, lr}
 8001826:	b084      	sub	sp, #16
 8001828:	af00      	add	r7, sp, #0
 800182a:	6078      	str	r0, [r7, #4]
  uint32_t itsource = htim->Instance->DIER;
 800182c:	687b      	ldr	r3, [r7, #4]
 800182e:	681b      	ldr	r3, [r3, #0]
 8001830:	68db      	ldr	r3, [r3, #12]
 8001832:	60fb      	str	r3, [r7, #12]
  uint32_t itflag   = htim->Instance->SR;
 8001834:	687b      	ldr	r3, [r7, #4]
 8001836:	681b      	ldr	r3, [r3, #0]
 8001838:	691b      	ldr	r3, [r3, #16]
 800183a:	60bb      	str	r3, [r7, #8]

  /* Capture compare 1 event */
  if ((itflag & (TIM_FLAG_CC1)) == (TIM_FLAG_CC1))
 800183c:	68bb      	ldr	r3, [r7, #8]
 800183e:	2202      	movs	r2, #2
 8001840:	4013      	ands	r3, r2
 8001842:	d021      	beq.n	8001888 <HAL_TIM_IRQHandler+0x64>
  {
    if ((itsource & (TIM_IT_CC1)) == (TIM_IT_CC1))
 8001844:	68fb      	ldr	r3, [r7, #12]
 8001846:	2202      	movs	r2, #2
 8001848:	4013      	ands	r3, r2
 800184a:	d01d      	beq.n	8001888 <HAL_TIM_IRQHandler+0x64>
    {
      {
        __HAL_TIM_CLEAR_FLAG(htim, TIM_FLAG_CC1);
 800184c:	687b      	ldr	r3, [r7, #4]
 800184e:	681b      	ldr	r3, [r3, #0]
 8001850:	2203      	movs	r2, #3
 8001852:	4252      	negs	r2, r2
 8001854:	611a      	str	r2, [r3, #16]
        htim->Channel = HAL_TIM_ACTIVE_CHANNEL_1;
 8001856:	687b      	ldr	r3, [r7, #4]
 8001858:	2201      	movs	r2, #1
 800185a:	771a      	strb	r2, [r3, #28]

        /* Input capture event */
        if ((htim->Instance->CCMR1 & TIM_CCMR1_CC1S) != 0x00U)
 800185c:	687b      	ldr	r3, [r7, #4]
 800185e:	681b      	ldr	r3, [r3, #0]
 8001860:	699b      	ldr	r3, [r3, #24]
 8001862:	2203      	movs	r2, #3
 8001864:	4013      	ands	r3, r2
 8001866:	d004      	beq.n	8001872 <HAL_TIM_IRQHandler+0x4e>
        {
#if (USE_HAL_TIM_REGISTER_CALLBACKS == 1)
          htim->IC_CaptureCallback(htim);
#else
          HAL_TIM_IC_CaptureCallback(htim);
 8001868:	687b      	ldr	r3, [r7, #4]
 800186a:	0018      	movs	r0, r3
 800186c:	f000 fac8 	bl	8001e00 <HAL_TIM_IC_CaptureCallback>
 8001870:	e007      	b.n	8001882 <HAL_TIM_IRQHandler+0x5e>
        {
#if (USE_HAL_TIM_REGISTER_CALLBACKS == 1)
          htim->OC_DelayElapsedCallback(htim);
          htim->PWM_PulseFinishedCallback(htim);
#else
          HAL_TIM_OC_DelayElapsedCallback(htim);
 8001872:	687b      	ldr	r3, [r7, #4]
 8001874:	0018      	movs	r0, r3
 8001876:	f000 fabb 	bl	8001df0 <HAL_TIM_OC_DelayElapsedCallback>
          HAL_TIM_PWM_PulseFinishedCallback(htim);
 800187a:	687b      	ldr	r3, [r7, #4]
 800187c:	0018      	movs	r0, r3
 800187e:	f000 fac7 	bl	8001e10 <HAL_TIM_PWM_PulseFinishedCallback>
#endif /* USE_HAL_TIM_REGISTER_CALLBACKS */
        }
        htim->Channel = HAL_TIM_ACTIVE_CHANNEL_CLEARED;
 8001882:	687b      	ldr	r3, [r7, #4]
 8001884:	2200      	movs	r2, #0
 8001886:	771a      	strb	r2, [r3, #28]
      }
    }
  }
  /* Capture compare 2 event */
  if ((itflag & (TIM_FLAG_CC2)) == (TIM_FLAG_CC2))
 8001888:	68bb      	ldr	r3, [r7, #8]
 800188a:	2204      	movs	r2, #4
 800188c:	4013      	ands	r3, r2
 800188e:	d022      	beq.n	80018d6 <HAL_TIM_IRQHandler+0xb2>
  {
    if ((itsource & (TIM_IT_CC2)) == (TIM_IT_CC2))
 8001890:	68fb      	ldr	r3, [r7, #12]
 8001892:	2204      	movs	r2, #4
 8001894:	4013      	ands	r3, r2
 8001896:	d01e      	beq.n	80018d6 <HAL_TIM_IRQHandler+0xb2>
    {
      __HAL_TIM_CLEAR_FLAG(htim, TIM_FLAG_CC2);
 8001898:	687b      	ldr	r3, [r7, #4]
 800189a:	681b      	ldr	r3, [r3, #0]
 800189c:	2205      	movs	r2, #5
 800189e:	4252      	negs	r2, r2
 80018a0:	611a      	str	r2, [r3, #16]
      htim->Channel = HAL_TIM_ACTIVE_CHANNEL_2;
 80018a2:	687b      	ldr	r3, [r7, #4]
 80018a4:	2202      	movs	r2, #2
 80018a6:	771a      	strb	r2, [r3, #28]
      /* Input capture event */
      if ((htim->Instance->CCMR1 & TIM_CCMR1_CC2S) != 0x00U)
 80018a8:	687b      	ldr	r3, [r7, #4]
 80018aa:	681b      	ldr	r3, [r3, #0]
 80018ac:	699a      	ldr	r2, [r3, #24]
 80018ae:	23c0      	movs	r3, #192	@ 0xc0
 80018b0:	009b      	lsls	r3, r3, #2
 80018b2:	4013      	ands	r3, r2
 80018b4:	d004      	beq.n	80018c0 <HAL_TIM_IRQHandler+0x9c>
      {
#if (USE_HAL_TIM_REGISTER_CALLBACKS == 1)
        htim->IC_CaptureCallback(htim);
#else
        HAL_TIM_IC_CaptureCallback(htim);
 80018b6:	687b      	ldr	r3, [r7, #4]
 80018b8:	0018      	movs	r0, r3
 80018ba:	f000 faa1 	bl	8001e00 <HAL_TIM_IC_CaptureCallback>
 80018be:	e007      	b.n	80018d0 <HAL_TIM_IRQHandler+0xac>
      {
#if (USE_HAL_TIM_REGISTER_CALLBACKS == 1)
        htim->OC_DelayElapsedCallback(htim);
        htim->PWM_PulseFinishedCallback(htim);
#else
        HAL_TIM_OC_DelayElapsedCallback(htim);
 80018c0:	687b      	ldr	r3, [r7, #4]
 80018c2:	0018      	movs	r0, r3
 80018c4:	f000 fa94 	bl	8001df0 <HAL_TIM_OC_DelayElapsedCallback>
        HAL_TIM_PWM_PulseFinishedCallback(htim);
 80018c8:	687b      	ldr	r3, [r7, #4]
 80018ca:	0018      	movs	r0, r3
 80018cc:	f000 faa0 	bl	8001e10 <HAL_TIM_PWM_PulseFinishedCallback>
#endif /* USE_HAL_TIM_REGISTER_CALLBACKS */
      }
      htim->Channel = HAL_TIM_ACTIVE_CHANNEL_CLEARED;
 80018d0:	687b      	ldr	r3, [r7, #4]
 80018d2:	2200      	movs	r2, #0
 80018d4:	771a      	strb	r2, [r3, #28]
    }
  }
  /* Capture compare 3 event */
  if ((itflag & (TIM_FLAG_CC3)) == (TIM_FLAG_CC3))
 80018d6:	68bb      	ldr	r3, [r7, #8]
 80018d8:	2208      	movs	r2, #8
 80018da:	4013      	ands	r3, r2
 80018dc:	d021      	beq.n	8001922 <HAL_TIM_IRQHandler+0xfe>
  {
    if ((itsource & (TIM_IT_CC3)) == (TIM_IT_CC3))
 80018de:	68fb      	ldr	r3, [r7, #12]
 80018e0:	2208      	movs	r2, #8
 80018e2:	4013      	ands	r3, r2
 80018e4:	d01d      	beq.n	8001922 <HAL_TIM_IRQHandler+0xfe>
    {
      __HAL_TIM_CLEAR_FLAG(htim, TIM_FLAG_CC3);
 80018e6:	687b      	ldr	r3, [r7, #4]
 80018e8:	681b      	ldr	r3, [r3, #0]
 80018ea:	2209      	movs	r2, #9
 80018ec:	4252      	negs	r2, r2
 80018ee:	611a      	str	r2, [r3, #16]
      htim->Channel = HAL_TIM_ACTIVE_CHANNEL_3;
 80018f0:	687b      	ldr	r3, [r7, #4]
 80018f2:	2204      	movs	r2, #4
 80018f4:	771a      	strb	r2, [r3, #28]
      /* Input capture event */
      if ((htim->Instance->CCMR2 & TIM_CCMR2_CC3S) != 0x00U)
 80018f6:	687b      	ldr	r3, [r7, #4]
 80018f8:	681b      	ldr	r3, [r3, #0]
 80018fa:	69db      	ldr	r3, [r3, #28]
 80018fc:	2203      	movs	r2, #3
 80018fe:	4013      	ands	r3, r2
 8001900:	d004      	beq.n	800190c <HAL_TIM_IRQHandler+0xe8>
      {
#if (USE_HAL_TIM_REGISTER_CALLBACKS == 1)
        htim->IC_CaptureCallback(htim);
#else
        HAL_TIM_IC_CaptureCallback(htim);
 8001902:	687b      	ldr	r3, [r7, #4]
 8001904:	0018      	movs	r0, r3
 8001906:	f000 fa7b 	bl	8001e00 <HAL_TIM_IC_CaptureCallback>
 800190a:	e007      	b.n	800191c <HAL_TIM_IRQHandler+0xf8>
      {
#if (USE_HAL_TIM_REGISTER_CALLBACKS == 1)
        htim->OC_DelayElapsedCallback(htim);
        htim->PWM_PulseFinishedCallback(htim);
#else
        HAL_TIM_OC_DelayElapsedCallback(htim);
 800190c:	687b      	ldr	r3, [r7, #4]
 800190e:	0018      	movs	r0, r3
 8001910:	f000 fa6e 	bl	8001df0 <HAL_TIM_OC_DelayElapsedCallback>
        HAL_TIM_PWM_PulseFinishedCallback(htim);
 8001914:	687b      	ldr	r3, [r7, #4]
 8001916:	0018      	movs	r0, r3
 8001918:	f000 fa7a 	bl	8001e10 <HAL_TIM_PWM_PulseFinishedCallback>
#endif /* USE_HAL_TIM_REGISTER_CALLBACKS */
      }
      htim->Channel = HAL_TIM_ACTIVE_CHANNEL_CLEARED;
 800191c:	687b      	ldr	r3, [r7, #4]
 800191e:	2200      	movs	r2, #0
 8001920:	771a      	strb	r2, [r3, #28]
    }
  }
  /* Capture compare 4 event */
  if ((itflag & (TIM_FLAG_CC4)) == (TIM_FLAG_CC4))
 8001922:	68bb      	ldr	r3, [r7, #8]
 8001924:	2210      	movs	r2, #16
 8001926:	4013      	ands	r3, r2
 8001928:	d022      	beq.n	8001970 <HAL_TIM_IRQHandler+0x14c>
  {
    if ((itsource & (TIM_IT_CC4)) == (TIM_IT_CC4))
 800192a:	68fb      	ldr	r3, [r7, #12]
 800192c:	2210      	movs	r2, #16
 800192e:	4013      	ands	r3, r2
 8001930:	d01e      	beq.n	8001970 <HAL_TIM_IRQHandler+0x14c>
    {
      __HAL_TIM_CLEAR_FLAG(htim, TIM_FLAG_CC4);
 8001932:	687b      	ldr	r3, [r7, #4]
 8001934:	681b      	ldr	r3, [r3, #0]
 8001936:	2211      	movs	r2, #17
 8001938:	4252      	negs	r2, r2
 800193a:	611a      	str	r2, [r3, #16]
      htim->Channel = HAL_TIM_ACTIVE_CHANNEL_4;
 800193c:	687b      	ldr	r3, [r7, #4]
 800193e:	2208      	movs	r2, #8
 8001940:	771a      	strb	r2, [r3, #28]
      /* Input capture event */
      if ((htim->Instance->CCMR2 & TIM_CCMR2_CC4S) != 0x00U)
 8001942:	687b      	ldr	r3, [r7, #4]
 8001944:	681b      	ldr	r3, [r3, #0]
 8001946:	69da      	ldr	r2, [r3, #28]
 8001948:	23c0      	movs	r3, #192	@ 0xc0
 800194a:	009b      	lsls	r3, r3, #2
 800194c:	4013      	ands	r3, r2
 800194e:	d004      	beq.n	800195a <HAL_TIM_IRQHandler+0x136>
      {
#if (USE_HAL_TIM_REGISTER_CALLBACKS == 1)
        htim->IC_CaptureCallback(htim);
#else
        HAL_TIM_IC_CaptureCallback(htim);
 8001950:	687b      	ldr	r3, [r7, #4]
 8001952:	0018      	movs	r0, r3
 8001954:	f000 fa54 	bl	8001e00 <HAL_TIM_IC_CaptureCallback>
 8001958:	e007      	b.n	800196a <HAL_TIM_IRQHandler+0x146>
      {
#if (USE_HAL_TIM_REGISTER_CALLBACKS == 1)
        htim->OC_DelayElapsedCallback(htim);
        htim->PWM_PulseFinishedCallback(htim);
#else
        HAL_TIM_OC_DelayElapsedCallback(htim);
 800195a:	687b      	ldr	r3, [r7, #4]
 800195c:	0018      	movs	r0, r3
 800195e:	f000 fa47 	bl	8001df0 <HAL_TIM_OC_DelayElapsedCallback>
        HAL_TIM_PWM_PulseFinishedCallback(htim);
 8001962:	687b      	ldr	r3, [r7, #4]
 8001964:	0018      	movs	r0, r3
 8001966:	f000 fa53 	bl	8001e10 <HAL_TIM_PWM_PulseFinishedCallback>
#endif /* USE_HAL_TIM_REGISTER_CALLBACKS */
      }
      htim->Channel = HAL_TIM_ACTIVE_CHANNEL_CLEARED;
 800196a:	687b      	ldr	r3, [r7, #4]
 800196c:	2200      	movs	r2, #0
 800196e:	771a      	strb	r2, [r3, #28]
    }
  }
  /* TIM Update event */
  if ((itflag & (TIM_FLAG_UPDATE)) == (TIM_FLAG_UPDATE))
 8001970:	68bb      	ldr	r3, [r7, #8]
 8001972:	2201      	movs	r2, #1
 8001974:	4013      	ands	r3, r2
 8001976:	d00c      	beq.n	8001992 <HAL_TIM_IRQHandler+0x16e>
  {
    if ((itsource & (TIM_IT_UPDATE)) == (TIM_IT_UPDATE))
 8001978:	68fb      	ldr	r3, [r7, #12]
 800197a:	2201      	movs	r2, #1
 800197c:	4013      	ands	r3, r2
 800197e:	d008      	beq.n	8001992 <HAL_TIM_IRQHandler+0x16e>
    {
      __HAL_TIM_CLEAR_FLAG(htim, TIM_FLAG_UPDATE);
 8001980:	687b      	ldr	r3, [r7, #4]
 8001982:	681b      	ldr	r3, [r3, #0]
 8001984:	2202      	movs	r2, #2
 8001986:	4252      	negs	r2, r2
 8001988:	611a      	str	r2, [r3, #16]
#if (USE_HAL_TIM_REGISTER_CALLBACKS == 1)
      htim->PeriodElapsedCallback(htim);
#else
      HAL_TIM_PeriodElapsedCallback(htim);
 800198a:	687b      	ldr	r3, [r7, #4]
 800198c:	0018      	movs	r0, r3
 800198e:	f000 fa27 	bl	8001de0 <HAL_TIM_PeriodElapsedCallback>
#endif /* USE_HAL_TIM_REGISTER_CALLBACKS */
    }
  }
  /* TIM Break input event */
  if (((itflag & (TIM_FLAG_BREAK)) == (TIM_FLAG_BREAK)) || \
 8001992:	68bb      	ldr	r3, [r7, #8]
 8001994:	2280      	movs	r2, #128	@ 0x80
 8001996:	4013      	ands	r3, r2
 8001998:	d104      	bne.n	80019a4 <HAL_TIM_IRQHandler+0x180>
      ((itflag & (TIM_FLAG_SYSTEM_BREAK)) == (TIM_FLAG_SYSTEM_BREAK)))
 800199a:	68ba      	ldr	r2, [r7, #8]
 800199c:	2380      	movs	r3, #128	@ 0x80
 800199e:	019b      	lsls	r3, r3, #6
 80019a0:	4013      	ands	r3, r2
  if (((itflag & (TIM_FLAG_BREAK)) == (TIM_FLAG_BREAK)) || \
 80019a2:	d00b      	beq.n	80019bc <HAL_TIM_IRQHandler+0x198>
  {
    if ((itsource & (TIM_IT_BREAK)) == (TIM_IT_BREAK))
 80019a4:	68fb      	ldr	r3, [r7, #12]
 80019a6:	2280      	movs	r2, #128	@ 0x80
 80019a8:	4013      	ands	r3, r2
 80019aa:	d007      	beq.n	80019bc <HAL_TIM_IRQHandler+0x198>
    {
      __HAL_TIM_CLEAR_FLAG(htim, TIM_FLAG_BREAK | TIM_FLAG_SYSTEM_BREAK);
 80019ac:	687b      	ldr	r3, [r7, #4]
 80019ae:	681b      	ldr	r3, [r3, #0]
 80019b0:	4a1e      	ldr	r2, [pc, #120]	@ (8001a2c <HAL_TIM_IRQHandler+0x208>)
 80019b2:	611a      	str	r2, [r3, #16]
#if (USE_HAL_TIM_REGISTER_CALLBACKS == 1)
      htim->BreakCallback(htim);
#else
      HAL_TIMEx_BreakCallback(htim);
 80019b4:	687b      	ldr	r3, [r7, #4]
 80019b6:	0018      	movs	r0, r3
 80019b8:	f000 fe56 	bl	8002668 <HAL_TIMEx_BreakCallback>
#endif /* USE_HAL_TIM_REGISTER_CALLBACKS */
    }
  }
  /* TIM Break2 input event */
  if ((itflag & (TIM_FLAG_BREAK2)) == (TIM_FLAG_BREAK2))
 80019bc:	68ba      	ldr	r2, [r7, #8]
 80019be:	2380      	movs	r3, #128	@ 0x80
 80019c0:	005b      	lsls	r3, r3, #1
 80019c2:	4013      	ands	r3, r2
 80019c4:	d00b      	beq.n	80019de <HAL_TIM_IRQHandler+0x1ba>
  {
    if ((itsource & (TIM_IT_BREAK)) == (TIM_IT_BREAK))
 80019c6:	68fb      	ldr	r3, [r7, #12]
 80019c8:	2280      	movs	r2, #128	@ 0x80
 80019ca:	4013      	ands	r3, r2
 80019cc:	d007      	beq.n	80019de <HAL_TIM_IRQHandler+0x1ba>
    {
      __HAL_TIM_CLEAR_FLAG(htim, TIM_FLAG_BREAK2);
 80019ce:	687b      	ldr	r3, [r7, #4]
 80019d0:	681b      	ldr	r3, [r3, #0]
 80019d2:	4a17      	ldr	r2, [pc, #92]	@ (8001a30 <HAL_TIM_IRQHandler+0x20c>)
 80019d4:	611a      	str	r2, [r3, #16]
#if (USE_HAL_TIM_REGISTER_CALLBACKS == 1)
      htim->Break2Callback(htim);
#else
      HAL_TIMEx_Break2Callback(htim);
 80019d6:	687b      	ldr	r3, [r7, #4]
 80019d8:	0018      	movs	r0, r3
 80019da:	f000 fe4d 	bl	8002678 <HAL_TIMEx_Break2Callback>
#endif /* USE_HAL_TIM_REGISTER_CALLBACKS */
    }
  }
  /* TIM Trigger detection event */
  if ((itflag & (TIM_FLAG_TRIGGER)) == (TIM_FLAG_TRIGGER))
 80019de:	68bb      	ldr	r3, [r7, #8]
 80019e0:	2240      	movs	r2, #64	@ 0x40
 80019e2:	4013      	ands	r3, r2
 80019e4:	d00c      	beq.n	8001a00 <HAL_TIM_IRQHandler+0x1dc>
  {
    if ((itsource & (TIM_IT_TRIGGER)) == (TIM_IT_TRIGGER))
 80019e6:	68fb      	ldr	r3, [r7, #12]
 80019e8:	2240      	movs	r2, #64	@ 0x40
 80019ea:	4013      	ands	r3, r2
 80019ec:	d008      	beq.n	8001a00 <HAL_TIM_IRQHandler+0x1dc>
    {
      __HAL_TIM_CLEAR_FLAG(htim, TIM_FLAG_TRIGGER);
 80019ee:	687b      	ldr	r3, [r7, #4]
 80019f0:	681b      	ldr	r3, [r3, #0]
 80019f2:	2241      	movs	r2, #65	@ 0x41
 80019f4:	4252      	negs	r2, r2
 80019f6:	611a      	str	r2, [r3, #16]
#if (USE_HAL_TIM_REGISTER_CALLBACKS == 1)
      htim->TriggerCallback(htim);
#else
      HAL_TIM_TriggerCallback(htim);
 80019f8:	687b      	ldr	r3, [r7, #4]
 80019fa:	0018      	movs	r0, r3
 80019fc:	f000 fa10 	bl	8001e20 <HAL_TIM_TriggerCallback>
#endif /* USE_HAL_TIM_REGISTER_CALLBACKS */
    }
  }
  /* TIM commutation event */
  if ((itflag & (TIM_FLAG_COM)) == (TIM_FLAG_COM))
 8001a00:	68bb      	ldr	r3, [r7, #8]
 8001a02:	2220      	movs	r2, #32
 8001a04:	4013      	ands	r3, r2
 8001a06:	d00c      	beq.n	8001a22 <HAL_TIM_IRQHandler+0x1fe>
  {
    if ((itsource & (TIM_IT_COM)) == (TIM_IT_COM))
 8001a08:	68fb      	ldr	r3, [r7, #12]
 8001a0a:	2220      	movs	r2, #32
 8001a0c:	4013      	ands	r3, r2
 8001a0e:	d008      	beq.n	8001a22 <HAL_TIM_IRQHandler+0x1fe>
    {
      __HAL_TIM_CLEAR_FLAG(htim, TIM_FLAG_COM);
 8001a10:	687b      	ldr	r3, [r7, #4]
 8001a12:	681b      	ldr	r3, [r3, #0]
 8001a14:	2221      	movs	r2, #33	@ 0x21
 8001a16:	4252      	negs	r2, r2
 8001a18:	611a      	str	r2, [r3, #16]
#if (USE_HAL_TIM_REGISTER_CALLBACKS == 1)
      htim->CommutationCallback(htim);
#else
      HAL_TIMEx_CommutCallback(htim);
 8001a1a:	687b      	ldr	r3, [r7, #4]
 8001a1c:	0018      	movs	r0, r3
 8001a1e:	f000 fe1b 	bl	8002658 <HAL_TIMEx_CommutCallback>
#endif /* USE_HAL_TIM_REGISTER_CALLBACKS */
    }
  }
}
 8001a22:	46c0      	nop			@ (mov r8, r8)
 8001a24:	46bd      	mov	sp, r7
 8001a26:	b004      	add	sp, #16
 8001a28:	bd80      	pop	{r7, pc}
 8001a2a:	46c0      	nop			@ (mov r8, r8)
 8001a2c:	ffffdf7f 	.word	0xffffdf7f
 8001a30:	fffffeff 	.word	0xfffffeff

08001a34 <HAL_TIM_PWM_ConfigChannel>:
  * @retval HAL status
  */
HAL_StatusTypeDef HAL_TIM_PWM_ConfigChannel(TIM_HandleTypeDef *htim,
                                            const TIM_OC_InitTypeDef *sConfig,
                                            uint32_t Channel)
{
 8001a34:	b580      	push	{r7, lr}
 8001a36:	b086      	sub	sp, #24
 8001a38:	af00      	add	r7, sp, #0
 8001a3a:	60f8      	str	r0, [r7, #12]
 8001a3c:	60b9      	str	r1, [r7, #8]
 8001a3e:	607a      	str	r2, [r7, #4]
  HAL_StatusTypeDef status = HAL_OK;
 8001a40:	2317      	movs	r3, #23
 8001a42:	18fb      	adds	r3, r7, r3
 8001a44:	2200      	movs	r2, #0
 8001a46:	701a      	strb	r2, [r3, #0]
  assert_param(IS_TIM_PWM_MODE(sConfig->OCMode));
  assert_param(IS_TIM_OC_POLARITY(sConfig->OCPolarity));
  assert_param(IS_TIM_FAST_STATE(sConfig->OCFastMode));

  /* Process Locked */
  __HAL_LOCK(htim);
 8001a48:	68fb      	ldr	r3, [r7, #12]
 8001a4a:	223c      	movs	r2, #60	@ 0x3c
 8001a4c:	5c9b      	ldrb	r3, [r3, r2]
 8001a4e:	2b01      	cmp	r3, #1
 8001a50:	d101      	bne.n	8001a56 <HAL_TIM_PWM_ConfigChannel+0x22>
 8001a52:	2302      	movs	r3, #2
 8001a54:	e0e5      	b.n	8001c22 <HAL_TIM_PWM_ConfigChannel+0x1ee>
 8001a56:	68fb      	ldr	r3, [r7, #12]
 8001a58:	223c      	movs	r2, #60	@ 0x3c
 8001a5a:	2101      	movs	r1, #1
 8001a5c:	5499      	strb	r1, [r3, r2]

  switch (Channel)
 8001a5e:	687b      	ldr	r3, [r7, #4]
 8001a60:	2b14      	cmp	r3, #20
 8001a62:	d900      	bls.n	8001a66 <HAL_TIM_PWM_ConfigChannel+0x32>
 8001a64:	e0d1      	b.n	8001c0a <HAL_TIM_PWM_ConfigChannel+0x1d6>
 8001a66:	687b      	ldr	r3, [r7, #4]
 8001a68:	009a      	lsls	r2, r3, #2
 8001a6a:	4b70      	ldr	r3, [pc, #448]	@ (8001c2c <HAL_TIM_PWM_ConfigChannel+0x1f8>)
 8001a6c:	18d3      	adds	r3, r2, r3
 8001a6e:	681b      	ldr	r3, [r3, #0]
 8001a70:	469f      	mov	pc, r3
    {
      /* Check the parameters */
      assert_param(IS_TIM_CC1_INSTANCE(htim->Instance));

      /* Configure the Channel 1 in PWM mode */
      TIM_OC1_SetConfig(htim->Instance, sConfig);
 8001a72:	68fb      	ldr	r3, [r7, #12]
 8001a74:	681b      	ldr	r3, [r3, #0]
 8001a76:	68ba      	ldr	r2, [r7, #8]
 8001a78:	0011      	movs	r1, r2
 8001a7a:	0018      	movs	r0, r3
 8001a7c:	f000 fa52 	bl	8001f24 <TIM_OC1_SetConfig>

      /* Set the Preload enable bit for channel1 */
      htim->Instance->CCMR1 |= TIM_CCMR1_OC1PE;
 8001a80:	68fb      	ldr	r3, [r7, #12]
 8001a82:	681b      	ldr	r3, [r3, #0]
 8001a84:	699a      	ldr	r2, [r3, #24]
 8001a86:	68fb      	ldr	r3, [r7, #12]
 8001a88:	681b      	ldr	r3, [r3, #0]
 8001a8a:	2108      	movs	r1, #8
 8001a8c:	430a      	orrs	r2, r1
 8001a8e:	619a      	str	r2, [r3, #24]

      /* Configure the Output Fast mode */
      htim->Instance->CCMR1 &= ~TIM_CCMR1_OC1FE;
 8001a90:	68fb      	ldr	r3, [r7, #12]
 8001a92:	681b      	ldr	r3, [r3, #0]
 8001a94:	699a      	ldr	r2, [r3, #24]
 8001a96:	68fb      	ldr	r3, [r7, #12]
 8001a98:	681b      	ldr	r3, [r3, #0]
 8001a9a:	2104      	movs	r1, #4
 8001a9c:	438a      	bics	r2, r1
 8001a9e:	619a      	str	r2, [r3, #24]
      htim->Instance->CCMR1 |= sConfig->OCFastMode;
 8001aa0:	68fb      	ldr	r3, [r7, #12]
 8001aa2:	681b      	ldr	r3, [r3, #0]
 8001aa4:	6999      	ldr	r1, [r3, #24]
 8001aa6:	68bb      	ldr	r3, [r7, #8]
 8001aa8:	691a      	ldr	r2, [r3, #16]
 8001aaa:	68fb      	ldr	r3, [r7, #12]
 8001aac:	681b      	ldr	r3, [r3, #0]
 8001aae:	430a      	orrs	r2, r1
 8001ab0:	619a      	str	r2, [r3, #24]
      break;
 8001ab2:	e0af      	b.n	8001c14 <HAL_TIM_PWM_ConfigChannel+0x1e0>
    {
      /* Check the parameters */
      assert_param(IS_TIM_CC2_INSTANCE(htim->Instance));

      /* Configure the Channel 2 in PWM mode */
      TIM_OC2_SetConfig(htim->Instance, sConfig);
 8001ab4:	68fb      	ldr	r3, [r7, #12]
 8001ab6:	681b      	ldr	r3, [r3, #0]
 8001ab8:	68ba      	ldr	r2, [r7, #8]
 8001aba:	0011      	movs	r1, r2
 8001abc:	0018      	movs	r0, r3
 8001abe:	f000 fab1 	bl	8002024 <TIM_OC2_SetConfig>

      /* Set the Preload enable bit for channel2 */
      htim->Instance->CCMR1 |= TIM_CCMR1_OC2PE;
 8001ac2:	68fb      	ldr	r3, [r7, #12]
 8001ac4:	681b      	ldr	r3, [r3, #0]
 8001ac6:	699a      	ldr	r2, [r3, #24]
 8001ac8:	68fb      	ldr	r3, [r7, #12]
 8001aca:	681b      	ldr	r3, [r3, #0]
 8001acc:	2180      	movs	r1, #128	@ 0x80
 8001ace:	0109      	lsls	r1, r1, #4
 8001ad0:	430a      	orrs	r2, r1
 8001ad2:	619a      	str	r2, [r3, #24]

      /* Configure the Output Fast mode */
      htim->Instance->CCMR1 &= ~TIM_CCMR1_OC2FE;
 8001ad4:	68fb      	ldr	r3, [r7, #12]
 8001ad6:	681b      	ldr	r3, [r3, #0]
 8001ad8:	699a      	ldr	r2, [r3, #24]
 8001ada:	68fb      	ldr	r3, [r7, #12]
 8001adc:	681b      	ldr	r3, [r3, #0]
 8001ade:	4954      	ldr	r1, [pc, #336]	@ (8001c30 <HAL_TIM_PWM_ConfigChannel+0x1fc>)
 8001ae0:	400a      	ands	r2, r1
 8001ae2:	619a      	str	r2, [r3, #24]
      htim->Instance->CCMR1 |= sConfig->OCFastMode << 8U;
 8001ae4:	68fb      	ldr	r3, [r7, #12]
 8001ae6:	681b      	ldr	r3, [r3, #0]
 8001ae8:	6999      	ldr	r1, [r3, #24]
 8001aea:	68bb      	ldr	r3, [r7, #8]
 8001aec:	691b      	ldr	r3, [r3, #16]
 8001aee:	021a      	lsls	r2, r3, #8
 8001af0:	68fb      	ldr	r3, [r7, #12]
 8001af2:	681b      	ldr	r3, [r3, #0]
 8001af4:	430a      	orrs	r2, r1
 8001af6:	619a      	str	r2, [r3, #24]
      break;
 8001af8:	e08c      	b.n	8001c14 <HAL_TIM_PWM_ConfigChannel+0x1e0>
    {
      /* Check the parameters */
      assert_param(IS_TIM_CC3_INSTANCE(htim->Instance));

      /* Configure the Channel 3 in PWM mode */
      TIM_OC3_SetConfig(htim->Instance, sConfig);
 8001afa:	68fb      	ldr	r3, [r7, #12]
 8001afc:	681b      	ldr	r3, [r3, #0]
 8001afe:	68ba      	ldr	r2, [r7, #8]
 8001b00:	0011      	movs	r1, r2
 8001b02:	0018      	movs	r0, r3
 8001b04:	f000 fb0c 	bl	8002120 <TIM_OC3_SetConfig>

      /* Set the Preload enable bit for channel3 */
      htim->Instance->CCMR2 |= TIM_CCMR2_OC3PE;
 8001b08:	68fb      	ldr	r3, [r7, #12]
 8001b0a:	681b      	ldr	r3, [r3, #0]
 8001b0c:	69da      	ldr	r2, [r3, #28]
 8001b0e:	68fb      	ldr	r3, [r7, #12]
 8001b10:	681b      	ldr	r3, [r3, #0]
 8001b12:	2108      	movs	r1, #8
 8001b14:	430a      	orrs	r2, r1
 8001b16:	61da      	str	r2, [r3, #28]

      /* Configure the Output Fast mode */
      htim->Instance->CCMR2 &= ~TIM_CCMR2_OC3FE;
 8001b18:	68fb      	ldr	r3, [r7, #12]
 8001b1a:	681b      	ldr	r3, [r3, #0]
 8001b1c:	69da      	ldr	r2, [r3, #28]
 8001b1e:	68fb      	ldr	r3, [r7, #12]
 8001b20:	681b      	ldr	r3, [r3, #0]
 8001b22:	2104      	movs	r1, #4
 8001b24:	438a      	bics	r2, r1
 8001b26:	61da      	str	r2, [r3, #28]
      htim->Instance->CCMR2 |= sConfig->OCFastMode;
 8001b28:	68fb      	ldr	r3, [r7, #12]
 8001b2a:	681b      	ldr	r3, [r3, #0]
 8001b2c:	69d9      	ldr	r1, [r3, #28]
 8001b2e:	68bb      	ldr	r3, [r7, #8]
 8001b30:	691a      	ldr	r2, [r3, #16]
 8001b32:	68fb      	ldr	r3, [r7, #12]
 8001b34:	681b      	ldr	r3, [r3, #0]
 8001b36:	430a      	orrs	r2, r1
 8001b38:	61da      	str	r2, [r3, #28]
      break;
 8001b3a:	e06b      	b.n	8001c14 <HAL_TIM_PWM_ConfigChannel+0x1e0>
    {
      /* Check the parameters */
      assert_param(IS_TIM_CC4_INSTANCE(htim->Instance));

      /* Configure the Channel 4 in PWM mode */
      TIM_OC4_SetConfig(htim->Instance, sConfig);
 8001b3c:	68fb      	ldr	r3, [r7, #12]
 8001b3e:	681b      	ldr	r3, [r3, #0]
 8001b40:	68ba      	ldr	r2, [r7, #8]
 8001b42:	0011      	movs	r1, r2
 8001b44:	0018      	movs	r0, r3
 8001b46:	f000 fb6d 	bl	8002224 <TIM_OC4_SetConfig>

      /* Set the Preload enable bit for channel4 */
      htim->Instance->CCMR2 |= TIM_CCMR2_OC4PE;
 8001b4a:	68fb      	ldr	r3, [r7, #12]
 8001b4c:	681b      	ldr	r3, [r3, #0]
 8001b4e:	69da      	ldr	r2, [r3, #28]
 8001b50:	68fb      	ldr	r3, [r7, #12]
 8001b52:	681b      	ldr	r3, [r3, #0]
 8001b54:	2180      	movs	r1, #128	@ 0x80
 8001b56:	0109      	lsls	r1, r1, #4
 8001b58:	430a      	orrs	r2, r1
 8001b5a:	61da      	str	r2, [r3, #28]

      /* Configure the Output Fast mode */
      htim->Instance->CCMR2 &= ~TIM_CCMR2_OC4FE;
 8001b5c:	68fb      	ldr	r3, [r7, #12]
 8001b5e:	681b      	ldr	r3, [r3, #0]
 8001b60:	69da      	ldr	r2, [r3, #28]
 8001b62:	68fb      	ldr	r3, [r7, #12]
 8001b64:	681b      	ldr	r3, [r3, #0]
 8001b66:	4932      	ldr	r1, [pc, #200]	@ (8001c30 <HAL_TIM_PWM_ConfigChannel+0x1fc>)
 8001b68:	400a      	ands	r2, r1
 8001b6a:	61da      	str	r2, [r3, #28]
      htim->Instance->CCMR2 |= sConfig->OCFastMode << 8U;
 8001b6c:	68fb      	ldr	r3, [r7, #12]
 8001b6e:	681b      	ldr	r3, [r3, #0]
 8001b70:	69d9      	ldr	r1, [r3, #28]
 8001b72:	68bb      	ldr	r3, [r7, #8]
 8001b74:	691b      	ldr	r3, [r3, #16]
 8001b76:	021a      	lsls	r2, r3, #8
 8001b78:	68fb      	ldr	r3, [r7, #12]
 8001b7a:	681b      	ldr	r3, [r3, #0]
 8001b7c:	430a      	orrs	r2, r1
 8001b7e:	61da      	str	r2, [r3, #28]
      break;
 8001b80:	e048      	b.n	8001c14 <HAL_TIM_PWM_ConfigChannel+0x1e0>
    {
      /* Check the parameters */
      assert_param(IS_TIM_CC5_INSTANCE(htim->Instance));

      /* Configure the Channel 5 in PWM mode */
      TIM_OC5_SetConfig(htim->Instance, sConfig);
 8001b82:	68fb      	ldr	r3, [r7, #12]
 8001b84:	681b      	ldr	r3, [r3, #0]
 8001b86:	68ba      	ldr	r2, [r7, #8]
 8001b88:	0011      	movs	r1, r2
 8001b8a:	0018      	movs	r0, r3
 8001b8c:	f000 fbae 	bl	80022ec <TIM_OC5_SetConfig>

      /* Set the Preload enable bit for channel5*/
      htim->Instance->CCMR3 |= TIM_CCMR3_OC5PE;
 8001b90:	68fb      	ldr	r3, [r7, #12]
 8001b92:	681b      	ldr	r3, [r3, #0]
 8001b94:	6d5a      	ldr	r2, [r3, #84]	@ 0x54
 8001b96:	68fb      	ldr	r3, [r7, #12]
 8001b98:	681b      	ldr	r3, [r3, #0]
 8001b9a:	2108      	movs	r1, #8
 8001b9c:	430a      	orrs	r2, r1
 8001b9e:	655a      	str	r2, [r3, #84]	@ 0x54

      /* Configure the Output Fast mode */
      htim->Instance->CCMR3 &= ~TIM_CCMR3_OC5FE;
 8001ba0:	68fb      	ldr	r3, [r7, #12]
 8001ba2:	681b      	ldr	r3, [r3, #0]
 8001ba4:	6d5a      	ldr	r2, [r3, #84]	@ 0x54
 8001ba6:	68fb      	ldr	r3, [r7, #12]
 8001ba8:	681b      	ldr	r3, [r3, #0]
 8001baa:	2104      	movs	r1, #4
 8001bac:	438a      	bics	r2, r1
 8001bae:	655a      	str	r2, [r3, #84]	@ 0x54
      htim->Instance->CCMR3 |= sConfig->OCFastMode;
 8001bb0:	68fb      	ldr	r3, [r7, #12]
 8001bb2:	681b      	ldr	r3, [r3, #0]
 8001bb4:	6d59      	ldr	r1, [r3, #84]	@ 0x54
 8001bb6:	68bb      	ldr	r3, [r7, #8]
 8001bb8:	691a      	ldr	r2, [r3, #16]
 8001bba:	68fb      	ldr	r3, [r7, #12]
 8001bbc:	681b      	ldr	r3, [r3, #0]
 8001bbe:	430a      	orrs	r2, r1
 8001bc0:	655a      	str	r2, [r3, #84]	@ 0x54
      break;
 8001bc2:	e027      	b.n	8001c14 <HAL_TIM_PWM_ConfigChannel+0x1e0>
    {
      /* Check the parameters */
      assert_param(IS_TIM_CC6_INSTANCE(htim->Instance));

      /* Configure the Channel 6 in PWM mode */
      TIM_OC6_SetConfig(htim->Instance, sConfig);
 8001bc4:	68fb      	ldr	r3, [r7, #12]
 8001bc6:	681b      	ldr	r3, [r3, #0]
 8001bc8:	68ba      	ldr	r2, [r7, #8]
 8001bca:	0011      	movs	r1, r2
 8001bcc:	0018      	movs	r0, r3
 8001bce:	f000 fbe7 	bl	80023a0 <TIM_OC6_SetConfig>

      /* Set the Preload enable bit for channel6 */
      htim->Instance->CCMR3 |= TIM_CCMR3_OC6PE;
 8001bd2:	68fb      	ldr	r3, [r7, #12]
 8001bd4:	681b      	ldr	r3, [r3, #0]
 8001bd6:	6d5a      	ldr	r2, [r3, #84]	@ 0x54
 8001bd8:	68fb      	ldr	r3, [r7, #12]
 8001bda:	681b      	ldr	r3, [r3, #0]
 8001bdc:	2180      	movs	r1, #128	@ 0x80
 8001bde:	0109      	lsls	r1, r1, #4
 8001be0:	430a      	orrs	r2, r1
 8001be2:	655a      	str	r2, [r3, #84]	@ 0x54

      /* Configure the Output Fast mode */
      htim->Instance->CCMR3 &= ~TIM_CCMR3_OC6FE;
 8001be4:	68fb      	ldr	r3, [r7, #12]
 8001be6:	681b      	ldr	r3, [r3, #0]
 8001be8:	6d5a      	ldr	r2, [r3, #84]	@ 0x54
 8001bea:	68fb      	ldr	r3, [r7, #12]
 8001bec:	681b      	ldr	r3, [r3, #0]
 8001bee:	4910      	ldr	r1, [pc, #64]	@ (8001c30 <HAL_TIM_PWM_ConfigChannel+0x1fc>)
 8001bf0:	400a      	ands	r2, r1
 8001bf2:	655a      	str	r2, [r3, #84]	@ 0x54
      htim->Instance->CCMR3 |= sConfig->OCFastMode << 8U;
 8001bf4:	68fb      	ldr	r3, [r7, #12]
 8001bf6:	681b      	ldr	r3, [r3, #0]
 8001bf8:	6d59      	ldr	r1, [r3, #84]	@ 0x54
 8001bfa:	68bb      	ldr	r3, [r7, #8]
 8001bfc:	691b      	ldr	r3, [r3, #16]
 8001bfe:	021a      	lsls	r2, r3, #8
 8001c00:	68fb      	ldr	r3, [r7, #12]
 8001c02:	681b      	ldr	r3, [r3, #0]
 8001c04:	430a      	orrs	r2, r1
 8001c06:	655a      	str	r2, [r3, #84]	@ 0x54
      break;
 8001c08:	e004      	b.n	8001c14 <HAL_TIM_PWM_ConfigChannel+0x1e0>
    }

    default:
      status = HAL_ERROR;
 8001c0a:	2317      	movs	r3, #23
 8001c0c:	18fb      	adds	r3, r7, r3
 8001c0e:	2201      	movs	r2, #1
 8001c10:	701a      	strb	r2, [r3, #0]
      break;
 8001c12:	46c0      	nop			@ (mov r8, r8)
  }

  __HAL_UNLOCK(htim);
 8001c14:	68fb      	ldr	r3, [r7, #12]
 8001c16:	223c      	movs	r2, #60	@ 0x3c
 8001c18:	2100      	movs	r1, #0
 8001c1a:	5499      	strb	r1, [r3, r2]

  return status;
 8001c1c:	2317      	movs	r3, #23
 8001c1e:	18fb      	adds	r3, r7, r3
 8001c20:	781b      	ldrb	r3, [r3, #0]
}
 8001c22:	0018      	movs	r0, r3
 8001c24:	46bd      	mov	sp, r7
 8001c26:	b006      	add	sp, #24
 8001c28:	bd80      	pop	{r7, pc}
 8001c2a:	46c0      	nop			@ (mov r8, r8)
 8001c2c:	08002738 	.word	0x08002738
 8001c30:	fffffbff 	.word	0xfffffbff

08001c34 <HAL_TIM_ConfigClockSource>:
  * @param  sClockSourceConfig pointer to a TIM_ClockConfigTypeDef structure that
  *         contains the clock source information for the TIM peripheral.
  * @retval HAL status
  */
HAL_StatusTypeDef HAL_TIM_ConfigClockSource(TIM_HandleTypeDef *htim, const TIM_ClockConfigTypeDef *sClockSourceConfig)
{
 8001c34:	b580      	push	{r7, lr}
 8001c36:	b084      	sub	sp, #16
 8001c38:	af00      	add	r7, sp, #0
 8001c3a:	6078      	str	r0, [r7, #4]
 8001c3c:	6039      	str	r1, [r7, #0]
  HAL_StatusTypeDef status = HAL_OK;
 8001c3e:	230f      	movs	r3, #15
 8001c40:	18fb      	adds	r3, r7, r3
 8001c42:	2200      	movs	r2, #0
 8001c44:	701a      	strb	r2, [r3, #0]
  uint32_t tmpsmcr;

  /* Process Locked */
  __HAL_LOCK(htim);
 8001c46:	687b      	ldr	r3, [r7, #4]
 8001c48:	223c      	movs	r2, #60	@ 0x3c
 8001c4a:	5c9b      	ldrb	r3, [r3, r2]
 8001c4c:	2b01      	cmp	r3, #1
 8001c4e:	d101      	bne.n	8001c54 <HAL_TIM_ConfigClockSource+0x20>
 8001c50:	2302      	movs	r3, #2
 8001c52:	e0bc      	b.n	8001dce <HAL_TIM_ConfigClockSource+0x19a>
 8001c54:	687b      	ldr	r3, [r7, #4]
 8001c56:	223c      	movs	r2, #60	@ 0x3c
 8001c58:	2101      	movs	r1, #1
 8001c5a:	5499      	strb	r1, [r3, r2]

  htim->State = HAL_TIM_STATE_BUSY;
 8001c5c:	687b      	ldr	r3, [r7, #4]
 8001c5e:	223d      	movs	r2, #61	@ 0x3d
 8001c60:	2102      	movs	r1, #2
 8001c62:	5499      	strb	r1, [r3, r2]

  /* Check the parameters */
  assert_param(IS_TIM_CLOCKSOURCE(sClockSourceConfig->ClockSource));

  /* Reset the SMS, TS, ECE, ETPS and ETRF bits */
  tmpsmcr = htim->Instance->SMCR;
 8001c64:	687b      	ldr	r3, [r7, #4]
 8001c66:	681b      	ldr	r3, [r3, #0]
 8001c68:	689b      	ldr	r3, [r3, #8]
 8001c6a:	60bb      	str	r3, [r7, #8]
  tmpsmcr &= ~(TIM_SMCR_SMS | TIM_SMCR_TS);
 8001c6c:	68bb      	ldr	r3, [r7, #8]
 8001c6e:	4a5a      	ldr	r2, [pc, #360]	@ (8001dd8 <HAL_TIM_ConfigClockSource+0x1a4>)
 8001c70:	4013      	ands	r3, r2
 8001c72:	60bb      	str	r3, [r7, #8]
  tmpsmcr &= ~(TIM_SMCR_ETF | TIM_SMCR_ETPS | TIM_SMCR_ECE | TIM_SMCR_ETP);
 8001c74:	68bb      	ldr	r3, [r7, #8]
 8001c76:	4a59      	ldr	r2, [pc, #356]	@ (8001ddc <HAL_TIM_ConfigClockSource+0x1a8>)
 8001c78:	4013      	ands	r3, r2
 8001c7a:	60bb      	str	r3, [r7, #8]
  htim->Instance->SMCR = tmpsmcr;
 8001c7c:	687b      	ldr	r3, [r7, #4]
 8001c7e:	681b      	ldr	r3, [r3, #0]
 8001c80:	68ba      	ldr	r2, [r7, #8]
 8001c82:	609a      	str	r2, [r3, #8]

  switch (sClockSourceConfig->ClockSource)
 8001c84:	683b      	ldr	r3, [r7, #0]
 8001c86:	681b      	ldr	r3, [r3, #0]
 8001c88:	2280      	movs	r2, #128	@ 0x80
 8001c8a:	0192      	lsls	r2, r2, #6
 8001c8c:	4293      	cmp	r3, r2
 8001c8e:	d040      	beq.n	8001d12 <HAL_TIM_ConfigClockSource+0xde>
 8001c90:	2280      	movs	r2, #128	@ 0x80
 8001c92:	0192      	lsls	r2, r2, #6
 8001c94:	4293      	cmp	r3, r2
 8001c96:	d900      	bls.n	8001c9a <HAL_TIM_ConfigClockSource+0x66>
 8001c98:	e088      	b.n	8001dac <HAL_TIM_ConfigClockSource+0x178>
 8001c9a:	2280      	movs	r2, #128	@ 0x80
 8001c9c:	0152      	lsls	r2, r2, #5
 8001c9e:	4293      	cmp	r3, r2
 8001ca0:	d100      	bne.n	8001ca4 <HAL_TIM_ConfigClockSource+0x70>
 8001ca2:	e088      	b.n	8001db6 <HAL_TIM_ConfigClockSource+0x182>
 8001ca4:	2280      	movs	r2, #128	@ 0x80
 8001ca6:	0152      	lsls	r2, r2, #5
 8001ca8:	4293      	cmp	r3, r2
 8001caa:	d900      	bls.n	8001cae <HAL_TIM_ConfigClockSource+0x7a>
 8001cac:	e07e      	b.n	8001dac <HAL_TIM_ConfigClockSource+0x178>
 8001cae:	2b70      	cmp	r3, #112	@ 0x70
 8001cb0:	d018      	beq.n	8001ce4 <HAL_TIM_ConfigClockSource+0xb0>
 8001cb2:	d900      	bls.n	8001cb6 <HAL_TIM_ConfigClockSource+0x82>
 8001cb4:	e07a      	b.n	8001dac <HAL_TIM_ConfigClockSource+0x178>
 8001cb6:	2b60      	cmp	r3, #96	@ 0x60
 8001cb8:	d04f      	beq.n	8001d5a <HAL_TIM_ConfigClockSource+0x126>
 8001cba:	d900      	bls.n	8001cbe <HAL_TIM_ConfigClockSource+0x8a>
 8001cbc:	e076      	b.n	8001dac <HAL_TIM_ConfigClockSource+0x178>
 8001cbe:	2b50      	cmp	r3, #80	@ 0x50
 8001cc0:	d03b      	beq.n	8001d3a <HAL_TIM_ConfigClockSource+0x106>
 8001cc2:	d900      	bls.n	8001cc6 <HAL_TIM_ConfigClockSource+0x92>
 8001cc4:	e072      	b.n	8001dac <HAL_TIM_ConfigClockSource+0x178>
 8001cc6:	2b40      	cmp	r3, #64	@ 0x40
 8001cc8:	d057      	beq.n	8001d7a <HAL_TIM_ConfigClockSource+0x146>
 8001cca:	d900      	bls.n	8001cce <HAL_TIM_ConfigClockSource+0x9a>
 8001ccc:	e06e      	b.n	8001dac <HAL_TIM_ConfigClockSource+0x178>
 8001cce:	2b30      	cmp	r3, #48	@ 0x30
 8001cd0:	d063      	beq.n	8001d9a <HAL_TIM_ConfigClockSource+0x166>
 8001cd2:	d86b      	bhi.n	8001dac <HAL_TIM_ConfigClockSource+0x178>
 8001cd4:	2b20      	cmp	r3, #32
 8001cd6:	d060      	beq.n	8001d9a <HAL_TIM_ConfigClockSource+0x166>
 8001cd8:	d868      	bhi.n	8001dac <HAL_TIM_ConfigClockSource+0x178>
 8001cda:	2b00      	cmp	r3, #0
 8001cdc:	d05d      	beq.n	8001d9a <HAL_TIM_ConfigClockSource+0x166>
 8001cde:	2b10      	cmp	r3, #16
 8001ce0:	d05b      	beq.n	8001d9a <HAL_TIM_ConfigClockSource+0x166>
 8001ce2:	e063      	b.n	8001dac <HAL_TIM_ConfigClockSource+0x178>
      assert_param(IS_TIM_CLOCKPRESCALER(sClockSourceConfig->ClockPrescaler));
      assert_param(IS_TIM_CLOCKPOLARITY(sClockSourceConfig->ClockPolarity));
      assert_param(IS_TIM_CLOCKFILTER(sClockSourceConfig->ClockFilter));

      /* Configure the ETR Clock source */
      TIM_ETR_SetConfig(htim->Instance,
 8001ce4:	687b      	ldr	r3, [r7, #4]
 8001ce6:	6818      	ldr	r0, [r3, #0]
                        sClockSourceConfig->ClockPrescaler,
 8001ce8:	683b      	ldr	r3, [r7, #0]
 8001cea:	6899      	ldr	r1, [r3, #8]
                        sClockSourceConfig->ClockPolarity,
 8001cec:	683b      	ldr	r3, [r7, #0]
 8001cee:	685a      	ldr	r2, [r3, #4]
                        sClockSourceConfig->ClockFilter);
 8001cf0:	683b      	ldr	r3, [r7, #0]
 8001cf2:	68db      	ldr	r3, [r3, #12]
      TIM_ETR_SetConfig(htim->Instance,
 8001cf4:	f000 fc2e 	bl	8002554 <TIM_ETR_SetConfig>

      /* Select the External clock mode1 and the ETRF trigger */
      tmpsmcr = htim->Instance->SMCR;
 8001cf8:	687b      	ldr	r3, [r7, #4]
 8001cfa:	681b      	ldr	r3, [r3, #0]
 8001cfc:	689b      	ldr	r3, [r3, #8]
 8001cfe:	60bb      	str	r3, [r7, #8]
      tmpsmcr |= (TIM_SLAVEMODE_EXTERNAL1 | TIM_CLOCKSOURCE_ETRMODE1);
 8001d00:	68bb      	ldr	r3, [r7, #8]
 8001d02:	2277      	movs	r2, #119	@ 0x77
 8001d04:	4313      	orrs	r3, r2
 8001d06:	60bb      	str	r3, [r7, #8]
      /* Write to TIMx SMCR */
      htim->Instance->SMCR = tmpsmcr;
 8001d08:	687b      	ldr	r3, [r7, #4]
 8001d0a:	681b      	ldr	r3, [r3, #0]
 8001d0c:	68ba      	ldr	r2, [r7, #8]
 8001d0e:	609a      	str	r2, [r3, #8]
      break;
 8001d10:	e052      	b.n	8001db8 <HAL_TIM_ConfigClockSource+0x184>
      assert_param(IS_TIM_CLOCKPRESCALER(sClockSourceConfig->ClockPrescaler));
      assert_param(IS_TIM_CLOCKPOLARITY(sClockSourceConfig->ClockPolarity));
      assert_param(IS_TIM_CLOCKFILTER(sClockSourceConfig->ClockFilter));

      /* Configure the ETR Clock source */
      TIM_ETR_SetConfig(htim->Instance,
 8001d12:	687b      	ldr	r3, [r7, #4]
 8001d14:	6818      	ldr	r0, [r3, #0]
                        sClockSourceConfig->ClockPrescaler,
 8001d16:	683b      	ldr	r3, [r7, #0]
 8001d18:	6899      	ldr	r1, [r3, #8]
                        sClockSourceConfig->ClockPolarity,
 8001d1a:	683b      	ldr	r3, [r7, #0]
 8001d1c:	685a      	ldr	r2, [r3, #4]
                        sClockSourceConfig->ClockFilter);
 8001d1e:	683b      	ldr	r3, [r7, #0]
 8001d20:	68db      	ldr	r3, [r3, #12]
      TIM_ETR_SetConfig(htim->Instance,
 8001d22:	f000 fc17 	bl	8002554 <TIM_ETR_SetConfig>
      /* Enable the External clock mode2 */
      htim->Instance->SMCR |= TIM_SMCR_ECE;
 8001d26:	687b      	ldr	r3, [r7, #4]
 8001d28:	681b      	ldr	r3, [r3, #0]
 8001d2a:	689a      	ldr	r2, [r3, #8]
 8001d2c:	687b      	ldr	r3, [r7, #4]
 8001d2e:	681b      	ldr	r3, [r3, #0]
 8001d30:	2180      	movs	r1, #128	@ 0x80
 8001d32:	01c9      	lsls	r1, r1, #7
 8001d34:	430a      	orrs	r2, r1
 8001d36:	609a      	str	r2, [r3, #8]
      break;
 8001d38:	e03e      	b.n	8001db8 <HAL_TIM_ConfigClockSource+0x184>

      /* Check TI1 input conditioning related parameters */
      assert_param(IS_TIM_CLOCKPOLARITY(sClockSourceConfig->ClockPolarity));
      assert_param(IS_TIM_CLOCKFILTER(sClockSourceConfig->ClockFilter));

      TIM_TI1_ConfigInputStage(htim->Instance,
 8001d3a:	687b      	ldr	r3, [r7, #4]
 8001d3c:	6818      	ldr	r0, [r3, #0]
                               sClockSourceConfig->ClockPolarity,
 8001d3e:	683b      	ldr	r3, [r7, #0]
 8001d40:	6859      	ldr	r1, [r3, #4]
                               sClockSourceConfig->ClockFilter);
 8001d42:	683b      	ldr	r3, [r7, #0]
 8001d44:	68db      	ldr	r3, [r3, #12]
      TIM_TI1_ConfigInputStage(htim->Instance,
 8001d46:	001a      	movs	r2, r3
 8001d48:	f000 fb88 	bl	800245c <TIM_TI1_ConfigInputStage>
      TIM_ITRx_SetConfig(htim->Instance, TIM_CLOCKSOURCE_TI1);
 8001d4c:	687b      	ldr	r3, [r7, #4]
 8001d4e:	681b      	ldr	r3, [r3, #0]
 8001d50:	2150      	movs	r1, #80	@ 0x50
 8001d52:	0018      	movs	r0, r3
 8001d54:	f000 fbe2 	bl	800251c <TIM_ITRx_SetConfig>
      break;
 8001d58:	e02e      	b.n	8001db8 <HAL_TIM_ConfigClockSource+0x184>

      /* Check TI2 input conditioning related parameters */
      assert_param(IS_TIM_CLOCKPOLARITY(sClockSourceConfig->ClockPolarity));
      assert_param(IS_TIM_CLOCKFILTER(sClockSourceConfig->ClockFilter));

      TIM_TI2_ConfigInputStage(htim->Instance,
 8001d5a:	687b      	ldr	r3, [r7, #4]
 8001d5c:	6818      	ldr	r0, [r3, #0]
                               sClockSourceConfig->ClockPolarity,
 8001d5e:	683b      	ldr	r3, [r7, #0]
 8001d60:	6859      	ldr	r1, [r3, #4]
                               sClockSourceConfig->ClockFilter);
 8001d62:	683b      	ldr	r3, [r7, #0]
 8001d64:	68db      	ldr	r3, [r3, #12]
      TIM_TI2_ConfigInputStage(htim->Instance,
 8001d66:	001a      	movs	r2, r3
 8001d68:	f000 fba6 	bl	80024b8 <TIM_TI2_ConfigInputStage>
      TIM_ITRx_SetConfig(htim->Instance, TIM_CLOCKSOURCE_TI2);
 8001d6c:	687b      	ldr	r3, [r7, #4]
 8001d6e:	681b      	ldr	r3, [r3, #0]
 8001d70:	2160      	movs	r1, #96	@ 0x60
 8001d72:	0018      	movs	r0, r3
 8001d74:	f000 fbd2 	bl	800251c <TIM_ITRx_SetConfig>
      break;
 8001d78:	e01e      	b.n	8001db8 <HAL_TIM_ConfigClockSource+0x184>

      /* Check TI1 input conditioning related parameters */
      assert_param(IS_TIM_CLOCKPOLARITY(sClockSourceConfig->ClockPolarity));
      assert_param(IS_TIM_CLOCKFILTER(sClockSourceConfig->ClockFilter));

      TIM_TI1_ConfigInputStage(htim->Instance,
 8001d7a:	687b      	ldr	r3, [r7, #4]
 8001d7c:	6818      	ldr	r0, [r3, #0]
                               sClockSourceConfig->ClockPolarity,
 8001d7e:	683b      	ldr	r3, [r7, #0]
 8001d80:	6859      	ldr	r1, [r3, #4]
                               sClockSourceConfig->ClockFilter);
 8001d82:	683b      	ldr	r3, [r7, #0]
 8001d84:	68db      	ldr	r3, [r3, #12]
      TIM_TI1_ConfigInputStage(htim->Instance,
 8001d86:	001a      	movs	r2, r3
 8001d88:	f000 fb68 	bl	800245c <TIM_TI1_ConfigInputStage>
      TIM_ITRx_SetConfig(htim->Instance, TIM_CLOCKSOURCE_TI1ED);
 8001d8c:	687b      	ldr	r3, [r7, #4]
 8001d8e:	681b      	ldr	r3, [r3, #0]
 8001d90:	2140      	movs	r1, #64	@ 0x40
 8001d92:	0018      	movs	r0, r3
 8001d94:	f000 fbc2 	bl	800251c <TIM_ITRx_SetConfig>
      break;
 8001d98:	e00e      	b.n	8001db8 <HAL_TIM_ConfigClockSource+0x184>
    case TIM_CLOCKSOURCE_ITR3:
    {
      /* Check whether or not the timer instance supports internal trigger input */
      assert_param(IS_TIM_CLOCKSOURCE_ITRX_INSTANCE(htim->Instance));

      TIM_ITRx_SetConfig(htim->Instance, sClockSourceConfig->ClockSource);
 8001d9a:	687b      	ldr	r3, [r7, #4]
 8001d9c:	681a      	ldr	r2, [r3, #0]
 8001d9e:	683b      	ldr	r3, [r7, #0]
 8001da0:	681b      	ldr	r3, [r3, #0]
 8001da2:	0019      	movs	r1, r3
 8001da4:	0010      	movs	r0, r2
 8001da6:	f000 fbb9 	bl	800251c <TIM_ITRx_SetConfig>
      break;
 8001daa:	e005      	b.n	8001db8 <HAL_TIM_ConfigClockSource+0x184>
    }

    default:
      status = HAL_ERROR;
 8001dac:	230f      	movs	r3, #15
 8001dae:	18fb      	adds	r3, r7, r3
 8001db0:	2201      	movs	r2, #1
 8001db2:	701a      	strb	r2, [r3, #0]
      break;
 8001db4:	e000      	b.n	8001db8 <HAL_TIM_ConfigClockSource+0x184>
      break;
 8001db6:	46c0      	nop			@ (mov r8, r8)
  }
  htim->State = HAL_TIM_STATE_READY;
 8001db8:	687b      	ldr	r3, [r7, #4]
 8001dba:	223d      	movs	r2, #61	@ 0x3d
 8001dbc:	2101      	movs	r1, #1
 8001dbe:	5499      	strb	r1, [r3, r2]

  __HAL_UNLOCK(htim);
 8001dc0:	687b      	ldr	r3, [r7, #4]
 8001dc2:	223c      	movs	r2, #60	@ 0x3c
 8001dc4:	2100      	movs	r1, #0
 8001dc6:	5499      	strb	r1, [r3, r2]

  return status;
 8001dc8:	230f      	movs	r3, #15
 8001dca:	18fb      	adds	r3, r7, r3
 8001dcc:	781b      	ldrb	r3, [r3, #0]
}
 8001dce:	0018      	movs	r0, r3
 8001dd0:	46bd      	mov	sp, r7
 8001dd2:	b004      	add	sp, #16
 8001dd4:	bd80      	pop	{r7, pc}
 8001dd6:	46c0      	nop			@ (mov r8, r8)
 8001dd8:	ffceff88 	.word	0xffceff88
 8001ddc:	ffff00ff 	.word	0xffff00ff

08001de0 <HAL_TIM_PeriodElapsedCallback>:
  * @brief  Period elapsed callback in non-blocking mode
  * @param  htim TIM handle
  * @retval None
  */
__weak void HAL_TIM_PeriodElapsedCallback(TIM_HandleTypeDef *htim)
{
 8001de0:	b580      	push	{r7, lr}
 8001de2:	b082      	sub	sp, #8
 8001de4:	af00      	add	r7, sp, #0
 8001de6:	6078      	str	r0, [r7, #4]
  UNUSED(htim);

  /* NOTE : This function should not be modified, when the callback is needed,
            the HAL_TIM_PeriodElapsedCallback could be implemented in the user file
   */
}
 8001de8:	46c0      	nop			@ (mov r8, r8)
 8001dea:	46bd      	mov	sp, r7
 8001dec:	b002      	add	sp, #8
 8001dee:	bd80      	pop	{r7, pc}

08001df0 <HAL_TIM_OC_DelayElapsedCallback>:
  * @brief  Output Compare callback in non-blocking mode
  * @param  htim TIM OC handle
  * @retval None
  */
__weak void HAL_TIM_OC_DelayElapsedCallback(TIM_HandleTypeDef *htim)
{
 8001df0:	b580      	push	{r7, lr}
 8001df2:	b082      	sub	sp, #8
 8001df4:	af00      	add	r7, sp, #0
 8001df6:	6078      	str	r0, [r7, #4]
  UNUSED(htim);

  /* NOTE : This function should not be modified, when the callback is needed,
            the HAL_TIM_OC_DelayElapsedCallback could be implemented in the user file
   */
}
 8001df8:	46c0      	nop			@ (mov r8, r8)
 8001dfa:	46bd      	mov	sp, r7
 8001dfc:	b002      	add	sp, #8
 8001dfe:	bd80      	pop	{r7, pc}

08001e00 <HAL_TIM_IC_CaptureCallback>:
  * @brief  Input Capture callback in non-blocking mode
  * @param  htim TIM IC handle
  * @retval None
  */
__weak void HAL_TIM_IC_CaptureCallback(TIM_HandleTypeDef *htim)
{
 8001e00:	b580      	push	{r7, lr}
 8001e02:	b082      	sub	sp, #8
 8001e04:	af00      	add	r7, sp, #0
 8001e06:	6078      	str	r0, [r7, #4]
  UNUSED(htim);

  /* NOTE : This function should not be modified, when the callback is needed,
            the HAL_TIM_IC_CaptureCallback could be implemented in the user file
   */
}
 8001e08:	46c0      	nop			@ (mov r8, r8)
 8001e0a:	46bd      	mov	sp, r7
 8001e0c:	b002      	add	sp, #8
 8001e0e:	bd80      	pop	{r7, pc}

08001e10 <HAL_TIM_PWM_PulseFinishedCallback>:
  * @brief  PWM Pulse finished callback in non-blocking mode
  * @param  htim TIM handle
  * @retval None
  */
__weak void HAL_TIM_PWM_PulseFinishedCallback(TIM_HandleTypeDef *htim)
{
 8001e10:	b580      	push	{r7, lr}
 8001e12:	b082      	sub	sp, #8
 8001e14:	af00      	add	r7, sp, #0
 8001e16:	6078      	str	r0, [r7, #4]
  UNUSED(htim);

  /* NOTE : This function should not be modified, when the callback is needed,
            the HAL_TIM_PWM_PulseFinishedCallback could be implemented in the user file
   */
}
 8001e18:	46c0      	nop			@ (mov r8, r8)
 8001e1a:	46bd      	mov	sp, r7
 8001e1c:	b002      	add	sp, #8
 8001e1e:	bd80      	pop	{r7, pc}

08001e20 <HAL_TIM_TriggerCallback>:
  * @brief  Hall Trigger detection callback in non-blocking mode
  * @param  htim TIM handle
  * @retval None
  */
__weak void HAL_TIM_TriggerCallback(TIM_HandleTypeDef *htim)
{
 8001e20:	b580      	push	{r7, lr}
 8001e22:	b082      	sub	sp, #8
 8001e24:	af00      	add	r7, sp, #0
 8001e26:	6078      	str	r0, [r7, #4]
  UNUSED(htim);

  /* NOTE : This function should not be modified, when the callback is needed,
            the HAL_TIM_TriggerCallback could be implemented in the user file
   */
}
 8001e28:	46c0      	nop			@ (mov r8, r8)
 8001e2a:	46bd      	mov	sp, r7
 8001e2c:	b002      	add	sp, #8
 8001e2e:	bd80      	pop	{r7, pc}

08001e30 <TIM_Base_SetConfig>:
  * @param  TIMx TIM peripheral
  * @param  Structure TIM Base configuration structure
  * @retval None
  */
void TIM_Base_SetConfig(TIM_TypeDef *TIMx, const TIM_Base_InitTypeDef *Structure)
{
 8001e30:	b580      	push	{r7, lr}
 8001e32:	b084      	sub	sp, #16
 8001e34:	af00      	add	r7, sp, #0
 8001e36:	6078      	str	r0, [r7, #4]
 8001e38:	6039      	str	r1, [r7, #0]
  uint32_t tmpcr1;
  tmpcr1 = TIMx->CR1;
 8001e3a:	687b      	ldr	r3, [r7, #4]
 8001e3c:	681b      	ldr	r3, [r3, #0]
 8001e3e:	60fb      	str	r3, [r7, #12]

  /* Set TIM Time Base Unit parameters ---------------------------------------*/
  if (IS_TIM_COUNTER_MODE_SELECT_INSTANCE(TIMx))
 8001e40:	687b      	ldr	r3, [r7, #4]
 8001e42:	4a32      	ldr	r2, [pc, #200]	@ (8001f0c <TIM_Base_SetConfig+0xdc>)
 8001e44:	4293      	cmp	r3, r2
 8001e46:	d003      	beq.n	8001e50 <TIM_Base_SetConfig+0x20>
 8001e48:	687b      	ldr	r3, [r7, #4]
 8001e4a:	4a31      	ldr	r2, [pc, #196]	@ (8001f10 <TIM_Base_SetConfig+0xe0>)
 8001e4c:	4293      	cmp	r3, r2
 8001e4e:	d108      	bne.n	8001e62 <TIM_Base_SetConfig+0x32>
  {
    /* Select the Counter Mode */
    tmpcr1 &= ~(TIM_CR1_DIR | TIM_CR1_CMS);
 8001e50:	68fb      	ldr	r3, [r7, #12]
 8001e52:	2270      	movs	r2, #112	@ 0x70
 8001e54:	4393      	bics	r3, r2
 8001e56:	60fb      	str	r3, [r7, #12]
    tmpcr1 |= Structure->CounterMode;
 8001e58:	683b      	ldr	r3, [r7, #0]
 8001e5a:	685b      	ldr	r3, [r3, #4]
 8001e5c:	68fa      	ldr	r2, [r7, #12]
 8001e5e:	4313      	orrs	r3, r2
 8001e60:	60fb      	str	r3, [r7, #12]
  }

  if (IS_TIM_CLOCK_DIVISION_INSTANCE(TIMx))
 8001e62:	687b      	ldr	r3, [r7, #4]
 8001e64:	4a29      	ldr	r2, [pc, #164]	@ (8001f0c <TIM_Base_SetConfig+0xdc>)
 8001e66:	4293      	cmp	r3, r2
 8001e68:	d00f      	beq.n	8001e8a <TIM_Base_SetConfig+0x5a>
 8001e6a:	687b      	ldr	r3, [r7, #4]
 8001e6c:	4a28      	ldr	r2, [pc, #160]	@ (8001f10 <TIM_Base_SetConfig+0xe0>)
 8001e6e:	4293      	cmp	r3, r2
 8001e70:	d00b      	beq.n	8001e8a <TIM_Base_SetConfig+0x5a>
 8001e72:	687b      	ldr	r3, [r7, #4]
 8001e74:	4a27      	ldr	r2, [pc, #156]	@ (8001f14 <TIM_Base_SetConfig+0xe4>)
 8001e76:	4293      	cmp	r3, r2
 8001e78:	d007      	beq.n	8001e8a <TIM_Base_SetConfig+0x5a>
 8001e7a:	687b      	ldr	r3, [r7, #4]
 8001e7c:	4a26      	ldr	r2, [pc, #152]	@ (8001f18 <TIM_Base_SetConfig+0xe8>)
 8001e7e:	4293      	cmp	r3, r2
 8001e80:	d003      	beq.n	8001e8a <TIM_Base_SetConfig+0x5a>
 8001e82:	687b      	ldr	r3, [r7, #4]
 8001e84:	4a25      	ldr	r2, [pc, #148]	@ (8001f1c <TIM_Base_SetConfig+0xec>)
 8001e86:	4293      	cmp	r3, r2
 8001e88:	d108      	bne.n	8001e9c <TIM_Base_SetConfig+0x6c>
  {
    /* Set the clock division */
    tmpcr1 &= ~TIM_CR1_CKD;
 8001e8a:	68fb      	ldr	r3, [r7, #12]
 8001e8c:	4a24      	ldr	r2, [pc, #144]	@ (8001f20 <TIM_Base_SetConfig+0xf0>)
 8001e8e:	4013      	ands	r3, r2
 8001e90:	60fb      	str	r3, [r7, #12]
    tmpcr1 |= (uint32_t)Structure->ClockDivision;
 8001e92:	683b      	ldr	r3, [r7, #0]
 8001e94:	68db      	ldr	r3, [r3, #12]
 8001e96:	68fa      	ldr	r2, [r7, #12]
 8001e98:	4313      	orrs	r3, r2
 8001e9a:	60fb      	str	r3, [r7, #12]
  }

  /* Set the auto-reload preload */
  MODIFY_REG(tmpcr1, TIM_CR1_ARPE, Structure->AutoReloadPreload);
 8001e9c:	68fb      	ldr	r3, [r7, #12]
 8001e9e:	2280      	movs	r2, #128	@ 0x80
 8001ea0:	4393      	bics	r3, r2
 8001ea2:	001a      	movs	r2, r3
 8001ea4:	683b      	ldr	r3, [r7, #0]
 8001ea6:	695b      	ldr	r3, [r3, #20]
 8001ea8:	4313      	orrs	r3, r2
 8001eaa:	60fb      	str	r3, [r7, #12]

  TIMx->CR1 = tmpcr1;
 8001eac:	687b      	ldr	r3, [r7, #4]
 8001eae:	68fa      	ldr	r2, [r7, #12]
 8001eb0:	601a      	str	r2, [r3, #0]

  /* Set the Autoreload value */
  TIMx->ARR = (uint32_t)Structure->Period ;
 8001eb2:	683b      	ldr	r3, [r7, #0]
 8001eb4:	689a      	ldr	r2, [r3, #8]
 8001eb6:	687b      	ldr	r3, [r7, #4]
 8001eb8:	62da      	str	r2, [r3, #44]	@ 0x2c

  /* Set the Prescaler value */
  TIMx->PSC = Structure->Prescaler;
 8001eba:	683b      	ldr	r3, [r7, #0]
 8001ebc:	681a      	ldr	r2, [r3, #0]
 8001ebe:	687b      	ldr	r3, [r7, #4]
 8001ec0:	629a      	str	r2, [r3, #40]	@ 0x28

  if (IS_TIM_REPETITION_COUNTER_INSTANCE(TIMx))
 8001ec2:	687b      	ldr	r3, [r7, #4]
 8001ec4:	4a11      	ldr	r2, [pc, #68]	@ (8001f0c <TIM_Base_SetConfig+0xdc>)
 8001ec6:	4293      	cmp	r3, r2
 8001ec8:	d007      	beq.n	8001eda <TIM_Base_SetConfig+0xaa>
 8001eca:	687b      	ldr	r3, [r7, #4]
 8001ecc:	4a12      	ldr	r2, [pc, #72]	@ (8001f18 <TIM_Base_SetConfig+0xe8>)
 8001ece:	4293      	cmp	r3, r2
 8001ed0:	d003      	beq.n	8001eda <TIM_Base_SetConfig+0xaa>
 8001ed2:	687b      	ldr	r3, [r7, #4]
 8001ed4:	4a11      	ldr	r2, [pc, #68]	@ (8001f1c <TIM_Base_SetConfig+0xec>)
 8001ed6:	4293      	cmp	r3, r2
 8001ed8:	d103      	bne.n	8001ee2 <TIM_Base_SetConfig+0xb2>
  {
    /* Set the Repetition Counter value */
    TIMx->RCR = Structure->RepetitionCounter;
 8001eda:	683b      	ldr	r3, [r7, #0]
 8001edc:	691a      	ldr	r2, [r3, #16]
 8001ede:	687b      	ldr	r3, [r7, #4]
 8001ee0:	631a      	str	r2, [r3, #48]	@ 0x30
  }

  /* Generate an update event to reload the Prescaler
     and the repetition counter (only for advanced timer) value immediately */
  TIMx->EGR = TIM_EGR_UG;
 8001ee2:	687b      	ldr	r3, [r7, #4]
 8001ee4:	2201      	movs	r2, #1
 8001ee6:	615a      	str	r2, [r3, #20]

  /* Check if the update flag is set after the Update Generation, if so clear the UIF flag */
  if (HAL_IS_BIT_SET(TIMx->SR, TIM_FLAG_UPDATE))
 8001ee8:	687b      	ldr	r3, [r7, #4]
 8001eea:	691b      	ldr	r3, [r3, #16]
 8001eec:	2201      	movs	r2, #1
 8001eee:	4013      	ands	r3, r2
 8001ef0:	2b01      	cmp	r3, #1
 8001ef2:	d106      	bne.n	8001f02 <TIM_Base_SetConfig+0xd2>
  {
    /* Clear the update flag */
    CLEAR_BIT(TIMx->SR, TIM_FLAG_UPDATE);
 8001ef4:	687b      	ldr	r3, [r7, #4]
 8001ef6:	691b      	ldr	r3, [r3, #16]
 8001ef8:	2201      	movs	r2, #1
 8001efa:	4393      	bics	r3, r2
 8001efc:	001a      	movs	r2, r3
 8001efe:	687b      	ldr	r3, [r7, #4]
 8001f00:	611a      	str	r2, [r3, #16]
  }
}
 8001f02:	46c0      	nop			@ (mov r8, r8)
 8001f04:	46bd      	mov	sp, r7
 8001f06:	b004      	add	sp, #16
 8001f08:	bd80      	pop	{r7, pc}
 8001f0a:	46c0      	nop			@ (mov r8, r8)
 8001f0c:	40012c00 	.word	0x40012c00
 8001f10:	40000400 	.word	0x40000400
 8001f14:	40002000 	.word	0x40002000
 8001f18:	40014400 	.word	0x40014400
 8001f1c:	40014800 	.word	0x40014800
 8001f20:	fffffcff 	.word	0xfffffcff

08001f24 <TIM_OC1_SetConfig>:
  * @param  TIMx to select the TIM peripheral
  * @param  OC_Config The output configuration structure
  * @retval None
  */
static void TIM_OC1_SetConfig(TIM_TypeDef *TIMx, const TIM_OC_InitTypeDef *OC_Config)
{
 8001f24:	b580      	push	{r7, lr}
 8001f26:	b086      	sub	sp, #24
 8001f28:	af00      	add	r7, sp, #0
 8001f2a:	6078      	str	r0, [r7, #4]
 8001f2c:	6039      	str	r1, [r7, #0]
  uint32_t tmpccmrx;
  uint32_t tmpccer;
  uint32_t tmpcr2;

  /* Get the TIMx CCER register value */
  tmpccer = TIMx->CCER;
 8001f2e:	687b      	ldr	r3, [r7, #4]
 8001f30:	6a1b      	ldr	r3, [r3, #32]
 8001f32:	617b      	str	r3, [r7, #20]

  /* Disable the Channel 1: Reset the CC1E Bit */
  TIMx->CCER &= ~TIM_CCER_CC1E;
 8001f34:	687b      	ldr	r3, [r7, #4]
 8001f36:	6a1b      	ldr	r3, [r3, #32]
 8001f38:	2201      	movs	r2, #1
 8001f3a:	4393      	bics	r3, r2
 8001f3c:	001a      	movs	r2, r3
 8001f3e:	687b      	ldr	r3, [r7, #4]
 8001f40:	621a      	str	r2, [r3, #32]

  /* Get the TIMx CR2 register value */
  tmpcr2 =  TIMx->CR2;
 8001f42:	687b      	ldr	r3, [r7, #4]
 8001f44:	685b      	ldr	r3, [r3, #4]
 8001f46:	613b      	str	r3, [r7, #16]

  /* Get the TIMx CCMR1 register value */
  tmpccmrx = TIMx->CCMR1;
 8001f48:	687b      	ldr	r3, [r7, #4]
 8001f4a:	699b      	ldr	r3, [r3, #24]
 8001f4c:	60fb      	str	r3, [r7, #12]

  /* Reset the Output Compare Mode Bits */
  tmpccmrx &= ~TIM_CCMR1_OC1M;
 8001f4e:	68fb      	ldr	r3, [r7, #12]
 8001f50:	4a2e      	ldr	r2, [pc, #184]	@ (800200c <TIM_OC1_SetConfig+0xe8>)
 8001f52:	4013      	ands	r3, r2
 8001f54:	60fb      	str	r3, [r7, #12]
  tmpccmrx &= ~TIM_CCMR1_CC1S;
 8001f56:	68fb      	ldr	r3, [r7, #12]
 8001f58:	2203      	movs	r2, #3
 8001f5a:	4393      	bics	r3, r2
 8001f5c:	60fb      	str	r3, [r7, #12]
  /* Select the Output Compare Mode */
  tmpccmrx |= OC_Config->OCMode;
 8001f5e:	683b      	ldr	r3, [r7, #0]
 8001f60:	681b      	ldr	r3, [r3, #0]
 8001f62:	68fa      	ldr	r2, [r7, #12]
 8001f64:	4313      	orrs	r3, r2
 8001f66:	60fb      	str	r3, [r7, #12]

  /* Reset the Output Polarity level */
  tmpccer &= ~TIM_CCER_CC1P;
 8001f68:	697b      	ldr	r3, [r7, #20]
 8001f6a:	2202      	movs	r2, #2
 8001f6c:	4393      	bics	r3, r2
 8001f6e:	617b      	str	r3, [r7, #20]
  /* Set the Output Compare Polarity */
  tmpccer |= OC_Config->OCPolarity;
 8001f70:	683b      	ldr	r3, [r7, #0]
 8001f72:	689b      	ldr	r3, [r3, #8]
 8001f74:	697a      	ldr	r2, [r7, #20]
 8001f76:	4313      	orrs	r3, r2
 8001f78:	617b      	str	r3, [r7, #20]

  if (IS_TIM_CCXN_INSTANCE(TIMx, TIM_CHANNEL_1))
 8001f7a:	687b      	ldr	r3, [r7, #4]
 8001f7c:	4a24      	ldr	r2, [pc, #144]	@ (8002010 <TIM_OC1_SetConfig+0xec>)
 8001f7e:	4293      	cmp	r3, r2
 8001f80:	d007      	beq.n	8001f92 <TIM_OC1_SetConfig+0x6e>
 8001f82:	687b      	ldr	r3, [r7, #4]
 8001f84:	4a23      	ldr	r2, [pc, #140]	@ (8002014 <TIM_OC1_SetConfig+0xf0>)
 8001f86:	4293      	cmp	r3, r2
 8001f88:	d003      	beq.n	8001f92 <TIM_OC1_SetConfig+0x6e>
 8001f8a:	687b      	ldr	r3, [r7, #4]
 8001f8c:	4a22      	ldr	r2, [pc, #136]	@ (8002018 <TIM_OC1_SetConfig+0xf4>)
 8001f8e:	4293      	cmp	r3, r2
 8001f90:	d10c      	bne.n	8001fac <TIM_OC1_SetConfig+0x88>
  {
    /* Check parameters */
    assert_param(IS_TIM_OCN_POLARITY(OC_Config->OCNPolarity));

    /* Reset the Output N Polarity level */
    tmpccer &= ~TIM_CCER_CC1NP;
 8001f92:	697b      	ldr	r3, [r7, #20]
 8001f94:	2208      	movs	r2, #8
 8001f96:	4393      	bics	r3, r2
 8001f98:	617b      	str	r3, [r7, #20]
    /* Set the Output N Polarity */
    tmpccer |= OC_Config->OCNPolarity;
 8001f9a:	683b      	ldr	r3, [r7, #0]
 8001f9c:	68db      	ldr	r3, [r3, #12]
 8001f9e:	697a      	ldr	r2, [r7, #20]
 8001fa0:	4313      	orrs	r3, r2
 8001fa2:	617b      	str	r3, [r7, #20]
    /* Reset the Output N State */
    tmpccer &= ~TIM_CCER_CC1NE;
 8001fa4:	697b      	ldr	r3, [r7, #20]
 8001fa6:	2204      	movs	r2, #4
 8001fa8:	4393      	bics	r3, r2
 8001faa:	617b      	str	r3, [r7, #20]
  }

  if (IS_TIM_BREAK_INSTANCE(TIMx))
 8001fac:	687b      	ldr	r3, [r7, #4]
 8001fae:	4a18      	ldr	r2, [pc, #96]	@ (8002010 <TIM_OC1_SetConfig+0xec>)
 8001fb0:	4293      	cmp	r3, r2
 8001fb2:	d007      	beq.n	8001fc4 <TIM_OC1_SetConfig+0xa0>
 8001fb4:	687b      	ldr	r3, [r7, #4]
 8001fb6:	4a17      	ldr	r2, [pc, #92]	@ (8002014 <TIM_OC1_SetConfig+0xf0>)
 8001fb8:	4293      	cmp	r3, r2
 8001fba:	d003      	beq.n	8001fc4 <TIM_OC1_SetConfig+0xa0>
 8001fbc:	687b      	ldr	r3, [r7, #4]
 8001fbe:	4a16      	ldr	r2, [pc, #88]	@ (8002018 <TIM_OC1_SetConfig+0xf4>)
 8001fc0:	4293      	cmp	r3, r2
 8001fc2:	d111      	bne.n	8001fe8 <TIM_OC1_SetConfig+0xc4>
    /* Check parameters */
    assert_param(IS_TIM_OCNIDLE_STATE(OC_Config->OCNIdleState));
    assert_param(IS_TIM_OCIDLE_STATE(OC_Config->OCIdleState));

    /* Reset the Output Compare and Output Compare N IDLE State */
    tmpcr2 &= ~TIM_CR2_OIS1;
 8001fc4:	693b      	ldr	r3, [r7, #16]
 8001fc6:	4a15      	ldr	r2, [pc, #84]	@ (800201c <TIM_OC1_SetConfig+0xf8>)
 8001fc8:	4013      	ands	r3, r2
 8001fca:	613b      	str	r3, [r7, #16]
    tmpcr2 &= ~TIM_CR2_OIS1N;
 8001fcc:	693b      	ldr	r3, [r7, #16]
 8001fce:	4a14      	ldr	r2, [pc, #80]	@ (8002020 <TIM_OC1_SetConfig+0xfc>)
 8001fd0:	4013      	ands	r3, r2
 8001fd2:	613b      	str	r3, [r7, #16]
    /* Set the Output Idle state */
    tmpcr2 |= OC_Config->OCIdleState;
 8001fd4:	683b      	ldr	r3, [r7, #0]
 8001fd6:	695b      	ldr	r3, [r3, #20]
 8001fd8:	693a      	ldr	r2, [r7, #16]
 8001fda:	4313      	orrs	r3, r2
 8001fdc:	613b      	str	r3, [r7, #16]
    /* Set the Output N Idle state */
    tmpcr2 |= OC_Config->OCNIdleState;
 8001fde:	683b      	ldr	r3, [r7, #0]
 8001fe0:	699b      	ldr	r3, [r3, #24]
 8001fe2:	693a      	ldr	r2, [r7, #16]
 8001fe4:	4313      	orrs	r3, r2
 8001fe6:	613b      	str	r3, [r7, #16]
  }

  /* Write to TIMx CR2 */
  TIMx->CR2 = tmpcr2;
 8001fe8:	687b      	ldr	r3, [r7, #4]
 8001fea:	693a      	ldr	r2, [r7, #16]
 8001fec:	605a      	str	r2, [r3, #4]

  /* Write to TIMx CCMR1 */
  TIMx->CCMR1 = tmpccmrx;
 8001fee:	687b      	ldr	r3, [r7, #4]
 8001ff0:	68fa      	ldr	r2, [r7, #12]
 8001ff2:	619a      	str	r2, [r3, #24]

  /* Set the Capture Compare Register value */
  TIMx->CCR1 = OC_Config->Pulse;
 8001ff4:	683b      	ldr	r3, [r7, #0]
 8001ff6:	685a      	ldr	r2, [r3, #4]
 8001ff8:	687b      	ldr	r3, [r7, #4]
 8001ffa:	635a      	str	r2, [r3, #52]	@ 0x34

  /* Write to TIMx CCER */
  TIMx->CCER = tmpccer;
 8001ffc:	687b      	ldr	r3, [r7, #4]
 8001ffe:	697a      	ldr	r2, [r7, #20]
 8002000:	621a      	str	r2, [r3, #32]
}
 8002002:	46c0      	nop			@ (mov r8, r8)
 8002004:	46bd      	mov	sp, r7
 8002006:	b006      	add	sp, #24
 8002008:	bd80      	pop	{r7, pc}
 800200a:	46c0      	nop			@ (mov r8, r8)
 800200c:	fffeff8f 	.word	0xfffeff8f
 8002010:	40012c00 	.word	0x40012c00
 8002014:	40014400 	.word	0x40014400
 8002018:	40014800 	.word	0x40014800
 800201c:	fffffeff 	.word	0xfffffeff
 8002020:	fffffdff 	.word	0xfffffdff

08002024 <TIM_OC2_SetConfig>:
  * @param  TIMx to select the TIM peripheral
  * @param  OC_Config The output configuration structure
  * @retval None
  */
void TIM_OC2_SetConfig(TIM_TypeDef *TIMx, const TIM_OC_InitTypeDef *OC_Config)
{
 8002024:	b580      	push	{r7, lr}
 8002026:	b086      	sub	sp, #24
 8002028:	af00      	add	r7, sp, #0
 800202a:	6078      	str	r0, [r7, #4]
 800202c:	6039      	str	r1, [r7, #0]
  uint32_t tmpccmrx;
  uint32_t tmpccer;
  uint32_t tmpcr2;

  /* Get the TIMx CCER register value */
  tmpccer = TIMx->CCER;
 800202e:	687b      	ldr	r3, [r7, #4]
 8002030:	6a1b      	ldr	r3, [r3, #32]
 8002032:	617b      	str	r3, [r7, #20]

  /* Disable the Channel 2: Reset the CC2E Bit */
  TIMx->CCER &= ~TIM_CCER_CC2E;
 8002034:	687b      	ldr	r3, [r7, #4]
 8002036:	6a1b      	ldr	r3, [r3, #32]
 8002038:	2210      	movs	r2, #16
 800203a:	4393      	bics	r3, r2
 800203c:	001a      	movs	r2, r3
 800203e:	687b      	ldr	r3, [r7, #4]
 8002040:	621a      	str	r2, [r3, #32]

  /* Get the TIMx CR2 register value */
  tmpcr2 =  TIMx->CR2;
 8002042:	687b      	ldr	r3, [r7, #4]
 8002044:	685b      	ldr	r3, [r3, #4]
 8002046:	613b      	str	r3, [r7, #16]

  /* Get the TIMx CCMR1 register value */
  tmpccmrx = TIMx->CCMR1;
 8002048:	687b      	ldr	r3, [r7, #4]
 800204a:	699b      	ldr	r3, [r3, #24]
 800204c:	60fb      	str	r3, [r7, #12]

  /* Reset the Output Compare mode and Capture/Compare selection Bits */
  tmpccmrx &= ~TIM_CCMR1_OC2M;
 800204e:	68fb      	ldr	r3, [r7, #12]
 8002050:	4a2c      	ldr	r2, [pc, #176]	@ (8002104 <TIM_OC2_SetConfig+0xe0>)
 8002052:	4013      	ands	r3, r2
 8002054:	60fb      	str	r3, [r7, #12]
  tmpccmrx &= ~TIM_CCMR1_CC2S;
 8002056:	68fb      	ldr	r3, [r7, #12]
 8002058:	4a2b      	ldr	r2, [pc, #172]	@ (8002108 <TIM_OC2_SetConfig+0xe4>)
 800205a:	4013      	ands	r3, r2
 800205c:	60fb      	str	r3, [r7, #12]

  /* Select the Output Compare Mode */
  tmpccmrx |= (OC_Config->OCMode << 8U);
 800205e:	683b      	ldr	r3, [r7, #0]
 8002060:	681b      	ldr	r3, [r3, #0]
 8002062:	021b      	lsls	r3, r3, #8
 8002064:	68fa      	ldr	r2, [r7, #12]
 8002066:	4313      	orrs	r3, r2
 8002068:	60fb      	str	r3, [r7, #12]

  /* Reset the Output Polarity level */
  tmpccer &= ~TIM_CCER_CC2P;
 800206a:	697b      	ldr	r3, [r7, #20]
 800206c:	2220      	movs	r2, #32
 800206e:	4393      	bics	r3, r2
 8002070:	617b      	str	r3, [r7, #20]
  /* Set the Output Compare Polarity */
  tmpccer |= (OC_Config->OCPolarity << 4U);
 8002072:	683b      	ldr	r3, [r7, #0]
 8002074:	689b      	ldr	r3, [r3, #8]
 8002076:	011b      	lsls	r3, r3, #4
 8002078:	697a      	ldr	r2, [r7, #20]
 800207a:	4313      	orrs	r3, r2
 800207c:	617b      	str	r3, [r7, #20]

  if (IS_TIM_CCXN_INSTANCE(TIMx, TIM_CHANNEL_2))
 800207e:	687b      	ldr	r3, [r7, #4]
 8002080:	4a22      	ldr	r2, [pc, #136]	@ (800210c <TIM_OC2_SetConfig+0xe8>)
 8002082:	4293      	cmp	r3, r2
 8002084:	d10d      	bne.n	80020a2 <TIM_OC2_SetConfig+0x7e>
  {
    assert_param(IS_TIM_OCN_POLARITY(OC_Config->OCNPolarity));

    /* Reset the Output N Polarity level */
    tmpccer &= ~TIM_CCER_CC2NP;
 8002086:	697b      	ldr	r3, [r7, #20]
 8002088:	2280      	movs	r2, #128	@ 0x80
 800208a:	4393      	bics	r3, r2
 800208c:	617b      	str	r3, [r7, #20]
    /* Set the Output N Polarity */
    tmpccer |= (OC_Config->OCNPolarity << 4U);
 800208e:	683b      	ldr	r3, [r7, #0]
 8002090:	68db      	ldr	r3, [r3, #12]
 8002092:	011b      	lsls	r3, r3, #4
 8002094:	697a      	ldr	r2, [r7, #20]
 8002096:	4313      	orrs	r3, r2
 8002098:	617b      	str	r3, [r7, #20]
    /* Reset the Output N State */
    tmpccer &= ~TIM_CCER_CC2NE;
 800209a:	697b      	ldr	r3, [r7, #20]
 800209c:	2240      	movs	r2, #64	@ 0x40
 800209e:	4393      	bics	r3, r2
 80020a0:	617b      	str	r3, [r7, #20]
  }

  if (IS_TIM_BREAK_INSTANCE(TIMx))
 80020a2:	687b      	ldr	r3, [r7, #4]
 80020a4:	4a19      	ldr	r2, [pc, #100]	@ (800210c <TIM_OC2_SetConfig+0xe8>)
 80020a6:	4293      	cmp	r3, r2
 80020a8:	d007      	beq.n	80020ba <TIM_OC2_SetConfig+0x96>
 80020aa:	687b      	ldr	r3, [r7, #4]
 80020ac:	4a18      	ldr	r2, [pc, #96]	@ (8002110 <TIM_OC2_SetConfig+0xec>)
 80020ae:	4293      	cmp	r3, r2
 80020b0:	d003      	beq.n	80020ba <TIM_OC2_SetConfig+0x96>
 80020b2:	687b      	ldr	r3, [r7, #4]
 80020b4:	4a17      	ldr	r2, [pc, #92]	@ (8002114 <TIM_OC2_SetConfig+0xf0>)
 80020b6:	4293      	cmp	r3, r2
 80020b8:	d113      	bne.n	80020e2 <TIM_OC2_SetConfig+0xbe>
    /* Check parameters */
    assert_param(IS_TIM_OCNIDLE_STATE(OC_Config->OCNIdleState));
    assert_param(IS_TIM_OCIDLE_STATE(OC_Config->OCIdleState));

    /* Reset the Output Compare and Output Compare N IDLE State */
    tmpcr2 &= ~TIM_CR2_OIS2;
 80020ba:	693b      	ldr	r3, [r7, #16]
 80020bc:	4a16      	ldr	r2, [pc, #88]	@ (8002118 <TIM_OC2_SetConfig+0xf4>)
 80020be:	4013      	ands	r3, r2
 80020c0:	613b      	str	r3, [r7, #16]
    tmpcr2 &= ~TIM_CR2_OIS2N;
 80020c2:	693b      	ldr	r3, [r7, #16]
 80020c4:	4a15      	ldr	r2, [pc, #84]	@ (800211c <TIM_OC2_SetConfig+0xf8>)
 80020c6:	4013      	ands	r3, r2
 80020c8:	613b      	str	r3, [r7, #16]
    /* Set the Output Idle state */
    tmpcr2 |= (OC_Config->OCIdleState << 2U);
 80020ca:	683b      	ldr	r3, [r7, #0]
 80020cc:	695b      	ldr	r3, [r3, #20]
 80020ce:	009b      	lsls	r3, r3, #2
 80020d0:	693a      	ldr	r2, [r7, #16]
 80020d2:	4313      	orrs	r3, r2
 80020d4:	613b      	str	r3, [r7, #16]
    /* Set the Output N Idle state */
    tmpcr2 |= (OC_Config->OCNIdleState << 2U);
 80020d6:	683b      	ldr	r3, [r7, #0]
 80020d8:	699b      	ldr	r3, [r3, #24]
 80020da:	009b      	lsls	r3, r3, #2
 80020dc:	693a      	ldr	r2, [r7, #16]
 80020de:	4313      	orrs	r3, r2
 80020e0:	613b      	str	r3, [r7, #16]
  }

  /* Write to TIMx CR2 */
  TIMx->CR2 = tmpcr2;
 80020e2:	687b      	ldr	r3, [r7, #4]
 80020e4:	693a      	ldr	r2, [r7, #16]
 80020e6:	605a      	str	r2, [r3, #4]

  /* Write to TIMx CCMR1 */
  TIMx->CCMR1 = tmpccmrx;
 80020e8:	687b      	ldr	r3, [r7, #4]
 80020ea:	68fa      	ldr	r2, [r7, #12]
 80020ec:	619a      	str	r2, [r3, #24]

  /* Set the Capture Compare Register value */
  TIMx->CCR2 = OC_Config->Pulse;
 80020ee:	683b      	ldr	r3, [r7, #0]
 80020f0:	685a      	ldr	r2, [r3, #4]
 80020f2:	687b      	ldr	r3, [r7, #4]
 80020f4:	639a      	str	r2, [r3, #56]	@ 0x38

  /* Write to TIMx CCER */
  TIMx->CCER = tmpccer;
 80020f6:	687b      	ldr	r3, [r7, #4]
 80020f8:	697a      	ldr	r2, [r7, #20]
 80020fa:	621a      	str	r2, [r3, #32]
}
 80020fc:	46c0      	nop			@ (mov r8, r8)
 80020fe:	46bd      	mov	sp, r7
 8002100:	b006      	add	sp, #24
 8002102:	bd80      	pop	{r7, pc}
 8002104:	feff8fff 	.word	0xfeff8fff
 8002108:	fffffcff 	.word	0xfffffcff
 800210c:	40012c00 	.word	0x40012c00
 8002110:	40014400 	.word	0x40014400
 8002114:	40014800 	.word	0x40014800
 8002118:	fffffbff 	.word	0xfffffbff
 800211c:	fffff7ff 	.word	0xfffff7ff

08002120 <TIM_OC3_SetConfig>:
  * @param  TIMx to select the TIM peripheral
  * @param  OC_Config The output configuration structure
  * @retval None
  */
static void TIM_OC3_SetConfig(TIM_TypeDef *TIMx, const TIM_OC_InitTypeDef *OC_Config)
{
 8002120:	b580      	push	{r7, lr}
 8002122:	b086      	sub	sp, #24
 8002124:	af00      	add	r7, sp, #0
 8002126:	6078      	str	r0, [r7, #4]
 8002128:	6039      	str	r1, [r7, #0]
  uint32_t tmpccmrx;
  uint32_t tmpccer;
  uint32_t tmpcr2;

  /* Get the TIMx CCER register value */
  tmpccer = TIMx->CCER;
 800212a:	687b      	ldr	r3, [r7, #4]
 800212c:	6a1b      	ldr	r3, [r3, #32]
 800212e:	617b      	str	r3, [r7, #20]

  /* Disable the Channel 3: Reset the CC2E Bit */
  TIMx->CCER &= ~TIM_CCER_CC3E;
 8002130:	687b      	ldr	r3, [r7, #4]
 8002132:	6a1b      	ldr	r3, [r3, #32]
 8002134:	4a31      	ldr	r2, [pc, #196]	@ (80021fc <TIM_OC3_SetConfig+0xdc>)
 8002136:	401a      	ands	r2, r3
 8002138:	687b      	ldr	r3, [r7, #4]
 800213a:	621a      	str	r2, [r3, #32]

  /* Get the TIMx CR2 register value */
  tmpcr2 =  TIMx->CR2;
 800213c:	687b      	ldr	r3, [r7, #4]
 800213e:	685b      	ldr	r3, [r3, #4]
 8002140:	613b      	str	r3, [r7, #16]

  /* Get the TIMx CCMR2 register value */
  tmpccmrx = TIMx->CCMR2;
 8002142:	687b      	ldr	r3, [r7, #4]
 8002144:	69db      	ldr	r3, [r3, #28]
 8002146:	60fb      	str	r3, [r7, #12]

  /* Reset the Output Compare mode and Capture/Compare selection Bits */
  tmpccmrx &= ~TIM_CCMR2_OC3M;
 8002148:	68fb      	ldr	r3, [r7, #12]
 800214a:	4a2d      	ldr	r2, [pc, #180]	@ (8002200 <TIM_OC3_SetConfig+0xe0>)
 800214c:	4013      	ands	r3, r2
 800214e:	60fb      	str	r3, [r7, #12]
  tmpccmrx &= ~TIM_CCMR2_CC3S;
 8002150:	68fb      	ldr	r3, [r7, #12]
 8002152:	2203      	movs	r2, #3
 8002154:	4393      	bics	r3, r2
 8002156:	60fb      	str	r3, [r7, #12]
  /* Select the Output Compare Mode */
  tmpccmrx |= OC_Config->OCMode;
 8002158:	683b      	ldr	r3, [r7, #0]
 800215a:	681b      	ldr	r3, [r3, #0]
 800215c:	68fa      	ldr	r2, [r7, #12]
 800215e:	4313      	orrs	r3, r2
 8002160:	60fb      	str	r3, [r7, #12]

  /* Reset the Output Polarity level */
  tmpccer &= ~TIM_CCER_CC3P;
 8002162:	697b      	ldr	r3, [r7, #20]
 8002164:	4a27      	ldr	r2, [pc, #156]	@ (8002204 <TIM_OC3_SetConfig+0xe4>)
 8002166:	4013      	ands	r3, r2
 8002168:	617b      	str	r3, [r7, #20]
  /* Set the Output Compare Polarity */
  tmpccer |= (OC_Config->OCPolarity << 8U);
 800216a:	683b      	ldr	r3, [r7, #0]
 800216c:	689b      	ldr	r3, [r3, #8]
 800216e:	021b      	lsls	r3, r3, #8
 8002170:	697a      	ldr	r2, [r7, #20]
 8002172:	4313      	orrs	r3, r2
 8002174:	617b      	str	r3, [r7, #20]

  if (IS_TIM_CCXN_INSTANCE(TIMx, TIM_CHANNEL_3))
 8002176:	687b      	ldr	r3, [r7, #4]
 8002178:	4a23      	ldr	r2, [pc, #140]	@ (8002208 <TIM_OC3_SetConfig+0xe8>)
 800217a:	4293      	cmp	r3, r2
 800217c:	d10d      	bne.n	800219a <TIM_OC3_SetConfig+0x7a>
  {
    assert_param(IS_TIM_OCN_POLARITY(OC_Config->OCNPolarity));

    /* Reset the Output N Polarity level */
    tmpccer &= ~TIM_CCER_CC3NP;
 800217e:	697b      	ldr	r3, [r7, #20]
 8002180:	4a22      	ldr	r2, [pc, #136]	@ (800220c <TIM_OC3_SetConfig+0xec>)
 8002182:	4013      	ands	r3, r2
 8002184:	617b      	str	r3, [r7, #20]
    /* Set the Output N Polarity */
    tmpccer |= (OC_Config->OCNPolarity << 8U);
 8002186:	683b      	ldr	r3, [r7, #0]
 8002188:	68db      	ldr	r3, [r3, #12]
 800218a:	021b      	lsls	r3, r3, #8
 800218c:	697a      	ldr	r2, [r7, #20]
 800218e:	4313      	orrs	r3, r2
 8002190:	617b      	str	r3, [r7, #20]
    /* Reset the Output N State */
    tmpccer &= ~TIM_CCER_CC3NE;
 8002192:	697b      	ldr	r3, [r7, #20]
 8002194:	4a1e      	ldr	r2, [pc, #120]	@ (8002210 <TIM_OC3_SetConfig+0xf0>)
 8002196:	4013      	ands	r3, r2
 8002198:	617b      	str	r3, [r7, #20]
  }

  if (IS_TIM_BREAK_INSTANCE(TIMx))
 800219a:	687b      	ldr	r3, [r7, #4]
 800219c:	4a1a      	ldr	r2, [pc, #104]	@ (8002208 <TIM_OC3_SetConfig+0xe8>)
 800219e:	4293      	cmp	r3, r2
 80021a0:	d007      	beq.n	80021b2 <TIM_OC3_SetConfig+0x92>
 80021a2:	687b      	ldr	r3, [r7, #4]
 80021a4:	4a1b      	ldr	r2, [pc, #108]	@ (8002214 <TIM_OC3_SetConfig+0xf4>)
 80021a6:	4293      	cmp	r3, r2
 80021a8:	d003      	beq.n	80021b2 <TIM_OC3_SetConfig+0x92>
 80021aa:	687b      	ldr	r3, [r7, #4]
 80021ac:	4a1a      	ldr	r2, [pc, #104]	@ (8002218 <TIM_OC3_SetConfig+0xf8>)
 80021ae:	4293      	cmp	r3, r2
 80021b0:	d113      	bne.n	80021da <TIM_OC3_SetConfig+0xba>
    /* Check parameters */
    assert_param(IS_TIM_OCNIDLE_STATE(OC_Config->OCNIdleState));
    assert_param(IS_TIM_OCIDLE_STATE(OC_Config->OCIdleState));

    /* Reset the Output Compare and Output Compare N IDLE State */
    tmpcr2 &= ~TIM_CR2_OIS3;
 80021b2:	693b      	ldr	r3, [r7, #16]
 80021b4:	4a19      	ldr	r2, [pc, #100]	@ (800221c <TIM_OC3_SetConfig+0xfc>)
 80021b6:	4013      	ands	r3, r2
 80021b8:	613b      	str	r3, [r7, #16]
    tmpcr2 &= ~TIM_CR2_OIS3N;
 80021ba:	693b      	ldr	r3, [r7, #16]
 80021bc:	4a18      	ldr	r2, [pc, #96]	@ (8002220 <TIM_OC3_SetConfig+0x100>)
 80021be:	4013      	ands	r3, r2
 80021c0:	613b      	str	r3, [r7, #16]
    /* Set the Output Idle state */
    tmpcr2 |= (OC_Config->OCIdleState << 4U);
 80021c2:	683b      	ldr	r3, [r7, #0]
 80021c4:	695b      	ldr	r3, [r3, #20]
 80021c6:	011b      	lsls	r3, r3, #4
 80021c8:	693a      	ldr	r2, [r7, #16]
 80021ca:	4313      	orrs	r3, r2
 80021cc:	613b      	str	r3, [r7, #16]
    /* Set the Output N Idle state */
    tmpcr2 |= (OC_Config->OCNIdleState << 4U);
 80021ce:	683b      	ldr	r3, [r7, #0]
 80021d0:	699b      	ldr	r3, [r3, #24]
 80021d2:	011b      	lsls	r3, r3, #4
 80021d4:	693a      	ldr	r2, [r7, #16]
 80021d6:	4313      	orrs	r3, r2
 80021d8:	613b      	str	r3, [r7, #16]
  }

  /* Write to TIMx CR2 */
  TIMx->CR2 = tmpcr2;
 80021da:	687b      	ldr	r3, [r7, #4]
 80021dc:	693a      	ldr	r2, [r7, #16]
 80021de:	605a      	str	r2, [r3, #4]

  /* Write to TIMx CCMR2 */
  TIMx->CCMR2 = tmpccmrx;
 80021e0:	687b      	ldr	r3, [r7, #4]
 80021e2:	68fa      	ldr	r2, [r7, #12]
 80021e4:	61da      	str	r2, [r3, #28]

  /* Set the Capture Compare Register value */
  TIMx->CCR3 = OC_Config->Pulse;
 80021e6:	683b      	ldr	r3, [r7, #0]
 80021e8:	685a      	ldr	r2, [r3, #4]
 80021ea:	687b      	ldr	r3, [r7, #4]
 80021ec:	63da      	str	r2, [r3, #60]	@ 0x3c

  /* Write to TIMx CCER */
  TIMx->CCER = tmpccer;
 80021ee:	687b      	ldr	r3, [r7, #4]
 80021f0:	697a      	ldr	r2, [r7, #20]
 80021f2:	621a      	str	r2, [r3, #32]
}
 80021f4:	46c0      	nop			@ (mov r8, r8)
 80021f6:	46bd      	mov	sp, r7
 80021f8:	b006      	add	sp, #24
 80021fa:	bd80      	pop	{r7, pc}
 80021fc:	fffffeff 	.word	0xfffffeff
 8002200:	fffeff8f 	.word	0xfffeff8f
 8002204:	fffffdff 	.word	0xfffffdff
 8002208:	40012c00 	.word	0x40012c00
 800220c:	fffff7ff 	.word	0xfffff7ff
 8002210:	fffffbff 	.word	0xfffffbff
 8002214:	40014400 	.word	0x40014400
 8002218:	40014800 	.word	0x40014800
 800221c:	ffffefff 	.word	0xffffefff
 8002220:	ffffdfff 	.word	0xffffdfff

08002224 <TIM_OC4_SetConfig>:
  * @param  TIMx to select the TIM peripheral
  * @param  OC_Config The output configuration structure
  * @retval None
  */
static void TIM_OC4_SetConfig(TIM_TypeDef *TIMx, const TIM_OC_InitTypeDef *OC_Config)
{
 8002224:	b580      	push	{r7, lr}
 8002226:	b086      	sub	sp, #24
 8002228:	af00      	add	r7, sp, #0
 800222a:	6078      	str	r0, [r7, #4]
 800222c:	6039      	str	r1, [r7, #0]
  uint32_t tmpccmrx;
  uint32_t tmpccer;
  uint32_t tmpcr2;

  /* Get the TIMx CCER register value */
  tmpccer = TIMx->CCER;
 800222e:	687b      	ldr	r3, [r7, #4]
 8002230:	6a1b      	ldr	r3, [r3, #32]
 8002232:	613b      	str	r3, [r7, #16]

  /* Disable the Channel 4: Reset the CC4E Bit */
  TIMx->CCER &= ~TIM_CCER_CC4E;
 8002234:	687b      	ldr	r3, [r7, #4]
 8002236:	6a1b      	ldr	r3, [r3, #32]
 8002238:	4a24      	ldr	r2, [pc, #144]	@ (80022cc <TIM_OC4_SetConfig+0xa8>)
 800223a:	401a      	ands	r2, r3
 800223c:	687b      	ldr	r3, [r7, #4]
 800223e:	621a      	str	r2, [r3, #32]

  /* Get the TIMx CR2 register value */
  tmpcr2 =  TIMx->CR2;
 8002240:	687b      	ldr	r3, [r7, #4]
 8002242:	685b      	ldr	r3, [r3, #4]
 8002244:	617b      	str	r3, [r7, #20]

  /* Get the TIMx CCMR2 register value */
  tmpccmrx = TIMx->CCMR2;
 8002246:	687b      	ldr	r3, [r7, #4]
 8002248:	69db      	ldr	r3, [r3, #28]
 800224a:	60fb      	str	r3, [r7, #12]

  /* Reset the Output Compare mode and Capture/Compare selection Bits */
  tmpccmrx &= ~TIM_CCMR2_OC4M;
 800224c:	68fb      	ldr	r3, [r7, #12]
 800224e:	4a20      	ldr	r2, [pc, #128]	@ (80022d0 <TIM_OC4_SetConfig+0xac>)
 8002250:	4013      	ands	r3, r2
 8002252:	60fb      	str	r3, [r7, #12]
  tmpccmrx &= ~TIM_CCMR2_CC4S;
 8002254:	68fb      	ldr	r3, [r7, #12]
 8002256:	4a1f      	ldr	r2, [pc, #124]	@ (80022d4 <TIM_OC4_SetConfig+0xb0>)
 8002258:	4013      	ands	r3, r2
 800225a:	60fb      	str	r3, [r7, #12]

  /* Select the Output Compare Mode */
  tmpccmrx |= (OC_Config->OCMode << 8U);
 800225c:	683b      	ldr	r3, [r7, #0]
 800225e:	681b      	ldr	r3, [r3, #0]
 8002260:	021b      	lsls	r3, r3, #8
 8002262:	68fa      	ldr	r2, [r7, #12]
 8002264:	4313      	orrs	r3, r2
 8002266:	60fb      	str	r3, [r7, #12]

  /* Reset the Output Polarity level */
  tmpccer &= ~TIM_CCER_CC4P;
 8002268:	693b      	ldr	r3, [r7, #16]
 800226a:	4a1b      	ldr	r2, [pc, #108]	@ (80022d8 <TIM_OC4_SetConfig+0xb4>)
 800226c:	4013      	ands	r3, r2
 800226e:	613b      	str	r3, [r7, #16]
  /* Set the Output Compare Polarity */
  tmpccer |= (OC_Config->OCPolarity << 12U);
 8002270:	683b      	ldr	r3, [r7, #0]
 8002272:	689b      	ldr	r3, [r3, #8]
 8002274:	031b      	lsls	r3, r3, #12
 8002276:	693a      	ldr	r2, [r7, #16]
 8002278:	4313      	orrs	r3, r2
 800227a:	613b      	str	r3, [r7, #16]

  if (IS_TIM_BREAK_INSTANCE(TIMx))
 800227c:	687b      	ldr	r3, [r7, #4]
 800227e:	4a17      	ldr	r2, [pc, #92]	@ (80022dc <TIM_OC4_SetConfig+0xb8>)
 8002280:	4293      	cmp	r3, r2
 8002282:	d007      	beq.n	8002294 <TIM_OC4_SetConfig+0x70>
 8002284:	687b      	ldr	r3, [r7, #4]
 8002286:	4a16      	ldr	r2, [pc, #88]	@ (80022e0 <TIM_OC4_SetConfig+0xbc>)
 8002288:	4293      	cmp	r3, r2
 800228a:	d003      	beq.n	8002294 <TIM_OC4_SetConfig+0x70>
 800228c:	687b      	ldr	r3, [r7, #4]
 800228e:	4a15      	ldr	r2, [pc, #84]	@ (80022e4 <TIM_OC4_SetConfig+0xc0>)
 8002290:	4293      	cmp	r3, r2
 8002292:	d109      	bne.n	80022a8 <TIM_OC4_SetConfig+0x84>
  {
    /* Check parameters */
    assert_param(IS_TIM_OCIDLE_STATE(OC_Config->OCIdleState));

    /* Reset the Output Compare IDLE State */
    tmpcr2 &= ~TIM_CR2_OIS4;
 8002294:	697b      	ldr	r3, [r7, #20]
 8002296:	4a14      	ldr	r2, [pc, #80]	@ (80022e8 <TIM_OC4_SetConfig+0xc4>)
 8002298:	4013      	ands	r3, r2
 800229a:	617b      	str	r3, [r7, #20]

    /* Set the Output Idle state */
    tmpcr2 |= (OC_Config->OCIdleState << 6U);
 800229c:	683b      	ldr	r3, [r7, #0]
 800229e:	695b      	ldr	r3, [r3, #20]
 80022a0:	019b      	lsls	r3, r3, #6
 80022a2:	697a      	ldr	r2, [r7, #20]
 80022a4:	4313      	orrs	r3, r2
 80022a6:	617b      	str	r3, [r7, #20]
  }

  /* Write to TIMx CR2 */
  TIMx->CR2 = tmpcr2;
 80022a8:	687b      	ldr	r3, [r7, #4]
 80022aa:	697a      	ldr	r2, [r7, #20]
 80022ac:	605a      	str	r2, [r3, #4]

  /* Write to TIMx CCMR2 */
  TIMx->CCMR2 = tmpccmrx;
 80022ae:	687b      	ldr	r3, [r7, #4]
 80022b0:	68fa      	ldr	r2, [r7, #12]
 80022b2:	61da      	str	r2, [r3, #28]

  /* Set the Capture Compare Register value */
  TIMx->CCR4 = OC_Config->Pulse;
 80022b4:	683b      	ldr	r3, [r7, #0]
 80022b6:	685a      	ldr	r2, [r3, #4]
 80022b8:	687b      	ldr	r3, [r7, #4]
 80022ba:	641a      	str	r2, [r3, #64]	@ 0x40

  /* Write to TIMx CCER */
  TIMx->CCER = tmpccer;
 80022bc:	687b      	ldr	r3, [r7, #4]
 80022be:	693a      	ldr	r2, [r7, #16]
 80022c0:	621a      	str	r2, [r3, #32]
}
 80022c2:	46c0      	nop			@ (mov r8, r8)
 80022c4:	46bd      	mov	sp, r7
 80022c6:	b006      	add	sp, #24
 80022c8:	bd80      	pop	{r7, pc}
 80022ca:	46c0      	nop			@ (mov r8, r8)
 80022cc:	ffffefff 	.word	0xffffefff
 80022d0:	feff8fff 	.word	0xfeff8fff
 80022d4:	fffffcff 	.word	0xfffffcff
 80022d8:	ffffdfff 	.word	0xffffdfff
 80022dc:	40012c00 	.word	0x40012c00
 80022e0:	40014400 	.word	0x40014400
 80022e4:	40014800 	.word	0x40014800
 80022e8:	ffffbfff 	.word	0xffffbfff

080022ec <TIM_OC5_SetConfig>:
  * @param  OC_Config The output configuration structure
  * @retval None
  */
static void TIM_OC5_SetConfig(TIM_TypeDef *TIMx,
                              const TIM_OC_InitTypeDef *OC_Config)
{
 80022ec:	b580      	push	{r7, lr}
 80022ee:	b086      	sub	sp, #24
 80022f0:	af00      	add	r7, sp, #0
 80022f2:	6078      	str	r0, [r7, #4]
 80022f4:	6039      	str	r1, [r7, #0]
  uint32_t tmpccmrx;
  uint32_t tmpccer;
  uint32_t tmpcr2;

  /* Get the TIMx CCER register value */
  tmpccer = TIMx->CCER;
 80022f6:	687b      	ldr	r3, [r7, #4]
 80022f8:	6a1b      	ldr	r3, [r3, #32]
 80022fa:	613b      	str	r3, [r7, #16]

  /* Disable the output: Reset the CCxE Bit */
  TIMx->CCER &= ~TIM_CCER_CC5E;
 80022fc:	687b      	ldr	r3, [r7, #4]
 80022fe:	6a1b      	ldr	r3, [r3, #32]
 8002300:	4a21      	ldr	r2, [pc, #132]	@ (8002388 <TIM_OC5_SetConfig+0x9c>)
 8002302:	401a      	ands	r2, r3
 8002304:	687b      	ldr	r3, [r7, #4]
 8002306:	621a      	str	r2, [r3, #32]

  /* Get the TIMx CR2 register value */
  tmpcr2 =  TIMx->CR2;
 8002308:	687b      	ldr	r3, [r7, #4]
 800230a:	685b      	ldr	r3, [r3, #4]
 800230c:	617b      	str	r3, [r7, #20]
  /* Get the TIMx CCMR1 register value */
  tmpccmrx = TIMx->CCMR3;
 800230e:	687b      	ldr	r3, [r7, #4]
 8002310:	6d5b      	ldr	r3, [r3, #84]	@ 0x54
 8002312:	60fb      	str	r3, [r7, #12]

  /* Reset the Output Compare Mode Bits */
  tmpccmrx &= ~(TIM_CCMR3_OC5M);
 8002314:	68fb      	ldr	r3, [r7, #12]
 8002316:	4a1d      	ldr	r2, [pc, #116]	@ (800238c <TIM_OC5_SetConfig+0xa0>)
 8002318:	4013      	ands	r3, r2
 800231a:	60fb      	str	r3, [r7, #12]
  /* Select the Output Compare Mode */
  tmpccmrx |= OC_Config->OCMode;
 800231c:	683b      	ldr	r3, [r7, #0]
 800231e:	681b      	ldr	r3, [r3, #0]
 8002320:	68fa      	ldr	r2, [r7, #12]
 8002322:	4313      	orrs	r3, r2
 8002324:	60fb      	str	r3, [r7, #12]

  /* Reset the Output Polarity level */
  tmpccer &= ~TIM_CCER_CC5P;
 8002326:	693b      	ldr	r3, [r7, #16]
 8002328:	4a19      	ldr	r2, [pc, #100]	@ (8002390 <TIM_OC5_SetConfig+0xa4>)
 800232a:	4013      	ands	r3, r2
 800232c:	613b      	str	r3, [r7, #16]
  /* Set the Output Compare Polarity */
  tmpccer |= (OC_Config->OCPolarity << 16U);
 800232e:	683b      	ldr	r3, [r7, #0]
 8002330:	689b      	ldr	r3, [r3, #8]
 8002332:	041b      	lsls	r3, r3, #16
 8002334:	693a      	ldr	r2, [r7, #16]
 8002336:	4313      	orrs	r3, r2
 8002338:	613b      	str	r3, [r7, #16]

  if (IS_TIM_BREAK_INSTANCE(TIMx))
 800233a:	687b      	ldr	r3, [r7, #4]
 800233c:	4a15      	ldr	r2, [pc, #84]	@ (8002394 <TIM_OC5_SetConfig+0xa8>)
 800233e:	4293      	cmp	r3, r2
 8002340:	d007      	beq.n	8002352 <TIM_OC5_SetConfig+0x66>
 8002342:	687b      	ldr	r3, [r7, #4]
 8002344:	4a14      	ldr	r2, [pc, #80]	@ (8002398 <TIM_OC5_SetConfig+0xac>)
 8002346:	4293      	cmp	r3, r2
 8002348:	d003      	beq.n	8002352 <TIM_OC5_SetConfig+0x66>
 800234a:	687b      	ldr	r3, [r7, #4]
 800234c:	4a13      	ldr	r2, [pc, #76]	@ (800239c <TIM_OC5_SetConfig+0xb0>)
 800234e:	4293      	cmp	r3, r2
 8002350:	d109      	bne.n	8002366 <TIM_OC5_SetConfig+0x7a>
  {
    /* Reset the Output Compare IDLE State */
    tmpcr2 &= ~TIM_CR2_OIS5;
 8002352:	697b      	ldr	r3, [r7, #20]
 8002354:	4a0c      	ldr	r2, [pc, #48]	@ (8002388 <TIM_OC5_SetConfig+0x9c>)
 8002356:	4013      	ands	r3, r2
 8002358:	617b      	str	r3, [r7, #20]
    /* Set the Output Idle state */
    tmpcr2 |= (OC_Config->OCIdleState << 8U);
 800235a:	683b      	ldr	r3, [r7, #0]
 800235c:	695b      	ldr	r3, [r3, #20]
 800235e:	021b      	lsls	r3, r3, #8
 8002360:	697a      	ldr	r2, [r7, #20]
 8002362:	4313      	orrs	r3, r2
 8002364:	617b      	str	r3, [r7, #20]
  }
  /* Write to TIMx CR2 */
  TIMx->CR2 = tmpcr2;
 8002366:	687b      	ldr	r3, [r7, #4]
 8002368:	697a      	ldr	r2, [r7, #20]
 800236a:	605a      	str	r2, [r3, #4]

  /* Write to TIMx CCMR3 */
  TIMx->CCMR3 = tmpccmrx;
 800236c:	687b      	ldr	r3, [r7, #4]
 800236e:	68fa      	ldr	r2, [r7, #12]
 8002370:	655a      	str	r2, [r3, #84]	@ 0x54

  /* Set the Capture Compare Register value */
  TIMx->CCR5 = OC_Config->Pulse;
 8002372:	683b      	ldr	r3, [r7, #0]
 8002374:	685a      	ldr	r2, [r3, #4]
 8002376:	687b      	ldr	r3, [r7, #4]
 8002378:	659a      	str	r2, [r3, #88]	@ 0x58

  /* Write to TIMx CCER */
  TIMx->CCER = tmpccer;
 800237a:	687b      	ldr	r3, [r7, #4]
 800237c:	693a      	ldr	r2, [r7, #16]
 800237e:	621a      	str	r2, [r3, #32]
}
 8002380:	46c0      	nop			@ (mov r8, r8)
 8002382:	46bd      	mov	sp, r7
 8002384:	b006      	add	sp, #24
 8002386:	bd80      	pop	{r7, pc}
 8002388:	fffeffff 	.word	0xfffeffff
 800238c:	fffeff8f 	.word	0xfffeff8f
 8002390:	fffdffff 	.word	0xfffdffff
 8002394:	40012c00 	.word	0x40012c00
 8002398:	40014400 	.word	0x40014400
 800239c:	40014800 	.word	0x40014800

080023a0 <TIM_OC6_SetConfig>:
  * @param  OC_Config The output configuration structure
  * @retval None
  */
static void TIM_OC6_SetConfig(TIM_TypeDef *TIMx,
                              const TIM_OC_InitTypeDef *OC_Config)
{
 80023a0:	b580      	push	{r7, lr}
 80023a2:	b086      	sub	sp, #24
 80023a4:	af00      	add	r7, sp, #0
 80023a6:	6078      	str	r0, [r7, #4]
 80023a8:	6039      	str	r1, [r7, #0]
  uint32_t tmpccmrx;
  uint32_t tmpccer;
  uint32_t tmpcr2;

  /* Get the TIMx CCER register value */
  tmpccer = TIMx->CCER;
 80023aa:	687b      	ldr	r3, [r7, #4]
 80023ac:	6a1b      	ldr	r3, [r3, #32]
 80023ae:	613b      	str	r3, [r7, #16]

  /* Disable the output: Reset the CCxE Bit */
  TIMx->CCER &= ~TIM_CCER_CC6E;
 80023b0:	687b      	ldr	r3, [r7, #4]
 80023b2:	6a1b      	ldr	r3, [r3, #32]
 80023b4:	4a22      	ldr	r2, [pc, #136]	@ (8002440 <TIM_OC6_SetConfig+0xa0>)
 80023b6:	401a      	ands	r2, r3
 80023b8:	687b      	ldr	r3, [r7, #4]
 80023ba:	621a      	str	r2, [r3, #32]

  /* Get the TIMx CR2 register value */
  tmpcr2 =  TIMx->CR2;
 80023bc:	687b      	ldr	r3, [r7, #4]
 80023be:	685b      	ldr	r3, [r3, #4]
 80023c0:	617b      	str	r3, [r7, #20]
  /* Get the TIMx CCMR1 register value */
  tmpccmrx = TIMx->CCMR3;
 80023c2:	687b      	ldr	r3, [r7, #4]
 80023c4:	6d5b      	ldr	r3, [r3, #84]	@ 0x54
 80023c6:	60fb      	str	r3, [r7, #12]

  /* Reset the Output Compare Mode Bits */
  tmpccmrx &= ~(TIM_CCMR3_OC6M);
 80023c8:	68fb      	ldr	r3, [r7, #12]
 80023ca:	4a1e      	ldr	r2, [pc, #120]	@ (8002444 <TIM_OC6_SetConfig+0xa4>)
 80023cc:	4013      	ands	r3, r2
 80023ce:	60fb      	str	r3, [r7, #12]
  /* Select the Output Compare Mode */
  tmpccmrx |= (OC_Config->OCMode << 8U);
 80023d0:	683b      	ldr	r3, [r7, #0]
 80023d2:	681b      	ldr	r3, [r3, #0]
 80023d4:	021b      	lsls	r3, r3, #8
 80023d6:	68fa      	ldr	r2, [r7, #12]
 80023d8:	4313      	orrs	r3, r2
 80023da:	60fb      	str	r3, [r7, #12]

  /* Reset the Output Polarity level */
  tmpccer &= (uint32_t)~TIM_CCER_CC6P;
 80023dc:	693b      	ldr	r3, [r7, #16]
 80023de:	4a1a      	ldr	r2, [pc, #104]	@ (8002448 <TIM_OC6_SetConfig+0xa8>)
 80023e0:	4013      	ands	r3, r2
 80023e2:	613b      	str	r3, [r7, #16]
  /* Set the Output Compare Polarity */
  tmpccer |= (OC_Config->OCPolarity << 20U);
 80023e4:	683b      	ldr	r3, [r7, #0]
 80023e6:	689b      	ldr	r3, [r3, #8]
 80023e8:	051b      	lsls	r3, r3, #20
 80023ea:	693a      	ldr	r2, [r7, #16]
 80023ec:	4313      	orrs	r3, r2
 80023ee:	613b      	str	r3, [r7, #16]

  if (IS_TIM_BREAK_INSTANCE(TIMx))
 80023f0:	687b      	ldr	r3, [r7, #4]
 80023f2:	4a16      	ldr	r2, [pc, #88]	@ (800244c <TIM_OC6_SetConfig+0xac>)
 80023f4:	4293      	cmp	r3, r2
 80023f6:	d007      	beq.n	8002408 <TIM_OC6_SetConfig+0x68>
 80023f8:	687b      	ldr	r3, [r7, #4]
 80023fa:	4a15      	ldr	r2, [pc, #84]	@ (8002450 <TIM_OC6_SetConfig+0xb0>)
 80023fc:	4293      	cmp	r3, r2
 80023fe:	d003      	beq.n	8002408 <TIM_OC6_SetConfig+0x68>
 8002400:	687b      	ldr	r3, [r7, #4]
 8002402:	4a14      	ldr	r2, [pc, #80]	@ (8002454 <TIM_OC6_SetConfig+0xb4>)
 8002404:	4293      	cmp	r3, r2
 8002406:	d109      	bne.n	800241c <TIM_OC6_SetConfig+0x7c>
  {
    /* Reset the Output Compare IDLE State */
    tmpcr2 &= ~TIM_CR2_OIS6;
 8002408:	697b      	ldr	r3, [r7, #20]
 800240a:	4a13      	ldr	r2, [pc, #76]	@ (8002458 <TIM_OC6_SetConfig+0xb8>)
 800240c:	4013      	ands	r3, r2
 800240e:	617b      	str	r3, [r7, #20]
    /* Set the Output Idle state */
    tmpcr2 |= (OC_Config->OCIdleState << 10U);
 8002410:	683b      	ldr	r3, [r7, #0]
 8002412:	695b      	ldr	r3, [r3, #20]
 8002414:	029b      	lsls	r3, r3, #10
 8002416:	697a      	ldr	r2, [r7, #20]
 8002418:	4313      	orrs	r3, r2
 800241a:	617b      	str	r3, [r7, #20]
  }

  /* Write to TIMx CR2 */
  TIMx->CR2 = tmpcr2;
 800241c:	687b      	ldr	r3, [r7, #4]
 800241e:	697a      	ldr	r2, [r7, #20]
 8002420:	605a      	str	r2, [r3, #4]

  /* Write to TIMx CCMR3 */
  TIMx->CCMR3 = tmpccmrx;
 8002422:	687b      	ldr	r3, [r7, #4]
 8002424:	68fa      	ldr	r2, [r7, #12]
 8002426:	655a      	str	r2, [r3, #84]	@ 0x54

  /* Set the Capture Compare Register value */
  TIMx->CCR6 = OC_Config->Pulse;
 8002428:	683b      	ldr	r3, [r7, #0]
 800242a:	685a      	ldr	r2, [r3, #4]
 800242c:	687b      	ldr	r3, [r7, #4]
 800242e:	65da      	str	r2, [r3, #92]	@ 0x5c

  /* Write to TIMx CCER */
  TIMx->CCER = tmpccer;
 8002430:	687b      	ldr	r3, [r7, #4]
 8002432:	693a      	ldr	r2, [r7, #16]
 8002434:	621a      	str	r2, [r3, #32]
}
 8002436:	46c0      	nop			@ (mov r8, r8)
 8002438:	46bd      	mov	sp, r7
 800243a:	b006      	add	sp, #24
 800243c:	bd80      	pop	{r7, pc}
 800243e:	46c0      	nop			@ (mov r8, r8)
 8002440:	ffefffff 	.word	0xffefffff
 8002444:	feff8fff 	.word	0xfeff8fff
 8002448:	ffdfffff 	.word	0xffdfffff
 800244c:	40012c00 	.word	0x40012c00
 8002450:	40014400 	.word	0x40014400
 8002454:	40014800 	.word	0x40014800
 8002458:	fffbffff 	.word	0xfffbffff

0800245c <TIM_TI1_ConfigInputStage>:
  * @param  TIM_ICFilter Specifies the Input Capture Filter.
  *          This parameter must be a value between 0x00 and 0x0F.
  * @retval None
  */
static void TIM_TI1_ConfigInputStage(TIM_TypeDef *TIMx, uint32_t TIM_ICPolarity, uint32_t TIM_ICFilter)
{
 800245c:	b580      	push	{r7, lr}
 800245e:	b086      	sub	sp, #24
 8002460:	af00      	add	r7, sp, #0
 8002462:	60f8      	str	r0, [r7, #12]
 8002464:	60b9      	str	r1, [r7, #8]
 8002466:	607a      	str	r2, [r7, #4]
  uint32_t tmpccmr1;
  uint32_t tmpccer;

  /* Disable the Channel 1: Reset the CC1E Bit */
  tmpccer = TIMx->CCER;
 8002468:	68fb      	ldr	r3, [r7, #12]
 800246a:	6a1b      	ldr	r3, [r3, #32]
 800246c:	617b      	str	r3, [r7, #20]
  TIMx->CCER &= ~TIM_CCER_CC1E;
 800246e:	68fb      	ldr	r3, [r7, #12]
 8002470:	6a1b      	ldr	r3, [r3, #32]
 8002472:	2201      	movs	r2, #1
 8002474:	4393      	bics	r3, r2
 8002476:	001a      	movs	r2, r3
 8002478:	68fb      	ldr	r3, [r7, #12]
 800247a:	621a      	str	r2, [r3, #32]
  tmpccmr1 = TIMx->CCMR1;
 800247c:	68fb      	ldr	r3, [r7, #12]
 800247e:	699b      	ldr	r3, [r3, #24]
 8002480:	613b      	str	r3, [r7, #16]

  /* Set the filter */
  tmpccmr1 &= ~TIM_CCMR1_IC1F;
 8002482:	693b      	ldr	r3, [r7, #16]
 8002484:	22f0      	movs	r2, #240	@ 0xf0
 8002486:	4393      	bics	r3, r2
 8002488:	613b      	str	r3, [r7, #16]
  tmpccmr1 |= (TIM_ICFilter << 4U);
 800248a:	687b      	ldr	r3, [r7, #4]
 800248c:	011b      	lsls	r3, r3, #4
 800248e:	693a      	ldr	r2, [r7, #16]
 8002490:	4313      	orrs	r3, r2
 8002492:	613b      	str	r3, [r7, #16]

  /* Select the Polarity and set the CC1E Bit */
  tmpccer &= ~(TIM_CCER_CC1P | TIM_CCER_CC1NP);
 8002494:	697b      	ldr	r3, [r7, #20]
 8002496:	220a      	movs	r2, #10
 8002498:	4393      	bics	r3, r2
 800249a:	617b      	str	r3, [r7, #20]
  tmpccer |= TIM_ICPolarity;
 800249c:	697a      	ldr	r2, [r7, #20]
 800249e:	68bb      	ldr	r3, [r7, #8]
 80024a0:	4313      	orrs	r3, r2
 80024a2:	617b      	str	r3, [r7, #20]

  /* Write to TIMx CCMR1 and CCER registers */
  TIMx->CCMR1 = tmpccmr1;
 80024a4:	68fb      	ldr	r3, [r7, #12]
 80024a6:	693a      	ldr	r2, [r7, #16]
 80024a8:	619a      	str	r2, [r3, #24]
  TIMx->CCER = tmpccer;
 80024aa:	68fb      	ldr	r3, [r7, #12]
 80024ac:	697a      	ldr	r2, [r7, #20]
 80024ae:	621a      	str	r2, [r3, #32]
}
 80024b0:	46c0      	nop			@ (mov r8, r8)
 80024b2:	46bd      	mov	sp, r7
 80024b4:	b006      	add	sp, #24
 80024b6:	bd80      	pop	{r7, pc}

080024b8 <TIM_TI2_ConfigInputStage>:
  * @param  TIM_ICFilter Specifies the Input Capture Filter.
  *          This parameter must be a value between 0x00 and 0x0F.
  * @retval None
  */
static void TIM_TI2_ConfigInputStage(TIM_TypeDef *TIMx, uint32_t TIM_ICPolarity, uint32_t TIM_ICFilter)
{
 80024b8:	b580      	push	{r7, lr}
 80024ba:	b086      	sub	sp, #24
 80024bc:	af00      	add	r7, sp, #0
 80024be:	60f8      	str	r0, [r7, #12]
 80024c0:	60b9      	str	r1, [r7, #8]
 80024c2:	607a      	str	r2, [r7, #4]
  uint32_t tmpccmr1;
  uint32_t tmpccer;

  /* Disable the Channel 2: Reset the CC2E Bit */
  tmpccer = TIMx->CCER;
 80024c4:	68fb      	ldr	r3, [r7, #12]
 80024c6:	6a1b      	ldr	r3, [r3, #32]
 80024c8:	617b      	str	r3, [r7, #20]
  TIMx->CCER &= ~TIM_CCER_CC2E;
 80024ca:	68fb      	ldr	r3, [r7, #12]
 80024cc:	6a1b      	ldr	r3, [r3, #32]
 80024ce:	2210      	movs	r2, #16
 80024d0:	4393      	bics	r3, r2
 80024d2:	001a      	movs	r2, r3
 80024d4:	68fb      	ldr	r3, [r7, #12]
 80024d6:	621a      	str	r2, [r3, #32]
  tmpccmr1 = TIMx->CCMR1;
 80024d8:	68fb      	ldr	r3, [r7, #12]
 80024da:	699b      	ldr	r3, [r3, #24]
 80024dc:	613b      	str	r3, [r7, #16]

  /* Set the filter */
  tmpccmr1 &= ~TIM_CCMR1_IC2F;
 80024de:	693b      	ldr	r3, [r7, #16]
 80024e0:	4a0d      	ldr	r2, [pc, #52]	@ (8002518 <TIM_TI2_ConfigInputStage+0x60>)
 80024e2:	4013      	ands	r3, r2
 80024e4:	613b      	str	r3, [r7, #16]
  tmpccmr1 |= (TIM_ICFilter << 12U);
 80024e6:	687b      	ldr	r3, [r7, #4]
 80024e8:	031b      	lsls	r3, r3, #12
 80024ea:	693a      	ldr	r2, [r7, #16]
 80024ec:	4313      	orrs	r3, r2
 80024ee:	613b      	str	r3, [r7, #16]

  /* Select the Polarity and set the CC2E Bit */
  tmpccer &= ~(TIM_CCER_CC2P | TIM_CCER_CC2NP);
 80024f0:	697b      	ldr	r3, [r7, #20]
 80024f2:	22a0      	movs	r2, #160	@ 0xa0
 80024f4:	4393      	bics	r3, r2
 80024f6:	617b      	str	r3, [r7, #20]
  tmpccer |= (TIM_ICPolarity << 4U);
 80024f8:	68bb      	ldr	r3, [r7, #8]
 80024fa:	011b      	lsls	r3, r3, #4
 80024fc:	697a      	ldr	r2, [r7, #20]
 80024fe:	4313      	orrs	r3, r2
 8002500:	617b      	str	r3, [r7, #20]

  /* Write to TIMx CCMR1 and CCER registers */
  TIMx->CCMR1 = tmpccmr1 ;
 8002502:	68fb      	ldr	r3, [r7, #12]
 8002504:	693a      	ldr	r2, [r7, #16]
 8002506:	619a      	str	r2, [r3, #24]
  TIMx->CCER = tmpccer;
 8002508:	68fb      	ldr	r3, [r7, #12]
 800250a:	697a      	ldr	r2, [r7, #20]
 800250c:	621a      	str	r2, [r3, #32]
}
 800250e:	46c0      	nop			@ (mov r8, r8)
 8002510:	46bd      	mov	sp, r7
 8002512:	b006      	add	sp, #24
 8002514:	bd80      	pop	{r7, pc}
 8002516:	46c0      	nop			@ (mov r8, r8)
 8002518:	ffff0fff 	.word	0xffff0fff

0800251c <TIM_ITRx_SetConfig>:
  *            @arg TIM_TS_TI2FP2: Filtered Timer Input 2
  *            @arg TIM_TS_ETRF: External Trigger input
  * @retval None
  */
static void TIM_ITRx_SetConfig(TIM_TypeDef *TIMx, uint32_t InputTriggerSource)
{
 800251c:	b580      	push	{r7, lr}
 800251e:	b084      	sub	sp, #16
 8002520:	af00      	add	r7, sp, #0
 8002522:	6078      	str	r0, [r7, #4]
 8002524:	6039      	str	r1, [r7, #0]
  uint32_t tmpsmcr;

  /* Get the TIMx SMCR register value */
  tmpsmcr = TIMx->SMCR;
 8002526:	687b      	ldr	r3, [r7, #4]
 8002528:	689b      	ldr	r3, [r3, #8]
 800252a:	60fb      	str	r3, [r7, #12]
  /* Reset the TS Bits */
  tmpsmcr &= ~TIM_SMCR_TS;
 800252c:	68fb      	ldr	r3, [r7, #12]
 800252e:	4a08      	ldr	r2, [pc, #32]	@ (8002550 <TIM_ITRx_SetConfig+0x34>)
 8002530:	4013      	ands	r3, r2
 8002532:	60fb      	str	r3, [r7, #12]
  /* Set the Input Trigger source and the slave mode*/
  tmpsmcr |= (InputTriggerSource | TIM_SLAVEMODE_EXTERNAL1);
 8002534:	683a      	ldr	r2, [r7, #0]
 8002536:	68fb      	ldr	r3, [r7, #12]
 8002538:	4313      	orrs	r3, r2
 800253a:	2207      	movs	r2, #7
 800253c:	4313      	orrs	r3, r2
 800253e:	60fb      	str	r3, [r7, #12]
  /* Write to TIMx SMCR */
  TIMx->SMCR = tmpsmcr;
 8002540:	687b      	ldr	r3, [r7, #4]
 8002542:	68fa      	ldr	r2, [r7, #12]
 8002544:	609a      	str	r2, [r3, #8]
}
 8002546:	46c0      	nop			@ (mov r8, r8)
 8002548:	46bd      	mov	sp, r7
 800254a:	b004      	add	sp, #16
 800254c:	bd80      	pop	{r7, pc}
 800254e:	46c0      	nop			@ (mov r8, r8)
 8002550:	ffcfff8f 	.word	0xffcfff8f

08002554 <TIM_ETR_SetConfig>:
  *          This parameter must be a value between 0x00 and 0x0F
  * @retval None
  */
void TIM_ETR_SetConfig(TIM_TypeDef *TIMx, uint32_t TIM_ExtTRGPrescaler,
                       uint32_t TIM_ExtTRGPolarity, uint32_t ExtTRGFilter)
{
 8002554:	b580      	push	{r7, lr}
 8002556:	b086      	sub	sp, #24
 8002558:	af00      	add	r7, sp, #0
 800255a:	60f8      	str	r0, [r7, #12]
 800255c:	60b9      	str	r1, [r7, #8]
 800255e:	607a      	str	r2, [r7, #4]
 8002560:	603b      	str	r3, [r7, #0]
  uint32_t tmpsmcr;

  tmpsmcr = TIMx->SMCR;
 8002562:	68fb      	ldr	r3, [r7, #12]
 8002564:	689b      	ldr	r3, [r3, #8]
 8002566:	617b      	str	r3, [r7, #20]

  /* Reset the ETR Bits */
  tmpsmcr &= ~(TIM_SMCR_ETF | TIM_SMCR_ETPS | TIM_SMCR_ECE | TIM_SMCR_ETP);
 8002568:	697b      	ldr	r3, [r7, #20]
 800256a:	4a09      	ldr	r2, [pc, #36]	@ (8002590 <TIM_ETR_SetConfig+0x3c>)
 800256c:	4013      	ands	r3, r2
 800256e:	617b      	str	r3, [r7, #20]

  /* Set the Prescaler, the Filter value and the Polarity */
  tmpsmcr |= (uint32_t)(TIM_ExtTRGPrescaler | (TIM_ExtTRGPolarity | (ExtTRGFilter << 8U)));
 8002570:	683b      	ldr	r3, [r7, #0]
 8002572:	021a      	lsls	r2, r3, #8
 8002574:	687b      	ldr	r3, [r7, #4]
 8002576:	431a      	orrs	r2, r3
 8002578:	68bb      	ldr	r3, [r7, #8]
 800257a:	4313      	orrs	r3, r2
 800257c:	697a      	ldr	r2, [r7, #20]
 800257e:	4313      	orrs	r3, r2
 8002580:	617b      	str	r3, [r7, #20]

  /* Write to TIMx SMCR */
  TIMx->SMCR = tmpsmcr;
 8002582:	68fb      	ldr	r3, [r7, #12]
 8002584:	697a      	ldr	r2, [r7, #20]
 8002586:	609a      	str	r2, [r3, #8]
}
 8002588:	46c0      	nop			@ (mov r8, r8)
 800258a:	46bd      	mov	sp, r7
 800258c:	b006      	add	sp, #24
 800258e:	bd80      	pop	{r7, pc}
 8002590:	ffff00ff 	.word	0xffff00ff

08002594 <HAL_TIMEx_MasterConfigSynchronization>:
  *         mode.
  * @retval HAL status
  */
HAL_StatusTypeDef HAL_TIMEx_MasterConfigSynchronization(TIM_HandleTypeDef *htim,
                                                        const TIM_MasterConfigTypeDef *sMasterConfig)
{
 8002594:	b580      	push	{r7, lr}
 8002596:	b084      	sub	sp, #16
 8002598:	af00      	add	r7, sp, #0
 800259a:	6078      	str	r0, [r7, #4]
 800259c:	6039      	str	r1, [r7, #0]
  assert_param(IS_TIM_MASTER_INSTANCE(htim->Instance));
  assert_param(IS_TIM_TRGO_SOURCE(sMasterConfig->MasterOutputTrigger));
  assert_param(IS_TIM_MSM_STATE(sMasterConfig->MasterSlaveMode));

  /* Check input state */
  __HAL_LOCK(htim);
 800259e:	687b      	ldr	r3, [r7, #4]
 80025a0:	223c      	movs	r2, #60	@ 0x3c
 80025a2:	5c9b      	ldrb	r3, [r3, r2]
 80025a4:	2b01      	cmp	r3, #1
 80025a6:	d101      	bne.n	80025ac <HAL_TIMEx_MasterConfigSynchronization+0x18>
 80025a8:	2302      	movs	r3, #2
 80025aa:	e04a      	b.n	8002642 <HAL_TIMEx_MasterConfigSynchronization+0xae>
 80025ac:	687b      	ldr	r3, [r7, #4]
 80025ae:	223c      	movs	r2, #60	@ 0x3c
 80025b0:	2101      	movs	r1, #1
 80025b2:	5499      	strb	r1, [r3, r2]

  /* Change the handler state */
  htim->State = HAL_TIM_STATE_BUSY;
 80025b4:	687b      	ldr	r3, [r7, #4]
 80025b6:	223d      	movs	r2, #61	@ 0x3d
 80025b8:	2102      	movs	r1, #2
 80025ba:	5499      	strb	r1, [r3, r2]

  /* Get the TIMx CR2 register value */
  tmpcr2 = htim->Instance->CR2;
 80025bc:	687b      	ldr	r3, [r7, #4]
 80025be:	681b      	ldr	r3, [r3, #0]
 80025c0:	685b      	ldr	r3, [r3, #4]
 80025c2:	60fb      	str	r3, [r7, #12]

  /* Get the TIMx SMCR register value */
  tmpsmcr = htim->Instance->SMCR;
 80025c4:	687b      	ldr	r3, [r7, #4]
 80025c6:	681b      	ldr	r3, [r3, #0]
 80025c8:	689b      	ldr	r3, [r3, #8]
 80025ca:	60bb      	str	r3, [r7, #8]

  /* If the timer supports ADC synchronization through TRGO2, set the master mode selection 2 */
  if (IS_TIM_TRGO2_INSTANCE(htim->Instance))
 80025cc:	687b      	ldr	r3, [r7, #4]
 80025ce:	681b      	ldr	r3, [r3, #0]
 80025d0:	4a1e      	ldr	r2, [pc, #120]	@ (800264c <HAL_TIMEx_MasterConfigSynchronization+0xb8>)
 80025d2:	4293      	cmp	r3, r2
 80025d4:	d108      	bne.n	80025e8 <HAL_TIMEx_MasterConfigSynchronization+0x54>
  {
    /* Check the parameters */
    assert_param(IS_TIM_TRGO2_SOURCE(sMasterConfig->MasterOutputTrigger2));

    /* Clear the MMS2 bits */
    tmpcr2 &= ~TIM_CR2_MMS2;
 80025d6:	68fb      	ldr	r3, [r7, #12]
 80025d8:	4a1d      	ldr	r2, [pc, #116]	@ (8002650 <HAL_TIMEx_MasterConfigSynchronization+0xbc>)
 80025da:	4013      	ands	r3, r2
 80025dc:	60fb      	str	r3, [r7, #12]
    /* Select the TRGO2 source*/
    tmpcr2 |= sMasterConfig->MasterOutputTrigger2;
 80025de:	683b      	ldr	r3, [r7, #0]
 80025e0:	685b      	ldr	r3, [r3, #4]
 80025e2:	68fa      	ldr	r2, [r7, #12]
 80025e4:	4313      	orrs	r3, r2
 80025e6:	60fb      	str	r3, [r7, #12]
  }

  /* Reset the MMS Bits */
  tmpcr2 &= ~TIM_CR2_MMS;
 80025e8:	68fb      	ldr	r3, [r7, #12]
 80025ea:	2270      	movs	r2, #112	@ 0x70
 80025ec:	4393      	bics	r3, r2
 80025ee:	60fb      	str	r3, [r7, #12]
  /* Select the TRGO source */
  tmpcr2 |=  sMasterConfig->MasterOutputTrigger;
 80025f0:	683b      	ldr	r3, [r7, #0]
 80025f2:	681b      	ldr	r3, [r3, #0]
 80025f4:	68fa      	ldr	r2, [r7, #12]
 80025f6:	4313      	orrs	r3, r2
 80025f8:	60fb      	str	r3, [r7, #12]

  /* Update TIMx CR2 */
  htim->Instance->CR2 = tmpcr2;
 80025fa:	687b      	ldr	r3, [r7, #4]
 80025fc:	681b      	ldr	r3, [r3, #0]
 80025fe:	68fa      	ldr	r2, [r7, #12]
 8002600:	605a      	str	r2, [r3, #4]

  if (IS_TIM_SLAVE_INSTANCE(htim->Instance))
 8002602:	687b      	ldr	r3, [r7, #4]
 8002604:	681b      	ldr	r3, [r3, #0]
 8002606:	4a11      	ldr	r2, [pc, #68]	@ (800264c <HAL_TIMEx_MasterConfigSynchronization+0xb8>)
 8002608:	4293      	cmp	r3, r2
 800260a:	d004      	beq.n	8002616 <HAL_TIMEx_MasterConfigSynchronization+0x82>
 800260c:	687b      	ldr	r3, [r7, #4]
 800260e:	681b      	ldr	r3, [r3, #0]
 8002610:	4a10      	ldr	r2, [pc, #64]	@ (8002654 <HAL_TIMEx_MasterConfigSynchronization+0xc0>)
 8002612:	4293      	cmp	r3, r2
 8002614:	d10c      	bne.n	8002630 <HAL_TIMEx_MasterConfigSynchronization+0x9c>
  {
    /* Reset the MSM Bit */
    tmpsmcr &= ~TIM_SMCR_MSM;
 8002616:	68bb      	ldr	r3, [r7, #8]
 8002618:	2280      	movs	r2, #128	@ 0x80
 800261a:	4393      	bics	r3, r2
 800261c:	60bb      	str	r3, [r7, #8]
    /* Set master mode */
    tmpsmcr |= sMasterConfig->MasterSlaveMode;
 800261e:	683b      	ldr	r3, [r7, #0]
 8002620:	689b      	ldr	r3, [r3, #8]
 8002622:	68ba      	ldr	r2, [r7, #8]
 8002624:	4313      	orrs	r3, r2
 8002626:	60bb      	str	r3, [r7, #8]

    /* Update TIMx SMCR */
    htim->Instance->SMCR = tmpsmcr;
 8002628:	687b      	ldr	r3, [r7, #4]
 800262a:	681b      	ldr	r3, [r3, #0]
 800262c:	68ba      	ldr	r2, [r7, #8]
 800262e:	609a      	str	r2, [r3, #8]
  }

  /* Change the htim state */
  htim->State = HAL_TIM_STATE_READY;
 8002630:	687b      	ldr	r3, [r7, #4]
 8002632:	223d      	movs	r2, #61	@ 0x3d
 8002634:	2101      	movs	r1, #1
 8002636:	5499      	strb	r1, [r3, r2]

  __HAL_UNLOCK(htim);
 8002638:	687b      	ldr	r3, [r7, #4]
 800263a:	223c      	movs	r2, #60	@ 0x3c
 800263c:	2100      	movs	r1, #0
 800263e:	5499      	strb	r1, [r3, r2]

  return HAL_OK;
 8002640:	2300      	movs	r3, #0
}
 8002642:	0018      	movs	r0, r3
 8002644:	46bd      	mov	sp, r7
 8002646:	b004      	add	sp, #16
 8002648:	bd80      	pop	{r7, pc}
 800264a:	46c0      	nop			@ (mov r8, r8)
 800264c:	40012c00 	.word	0x40012c00
 8002650:	ff0fffff 	.word	0xff0fffff
 8002654:	40000400 	.word	0x40000400

08002658 <HAL_TIMEx_CommutCallback>:
  * @brief  Commutation callback in non-blocking mode
  * @param  htim TIM handle
  * @retval None
  */
__weak void HAL_TIMEx_CommutCallback(TIM_HandleTypeDef *htim)
{
 8002658:	b580      	push	{r7, lr}
 800265a:	b082      	sub	sp, #8
 800265c:	af00      	add	r7, sp, #0
 800265e:	6078      	str	r0, [r7, #4]
  UNUSED(htim);

  /* NOTE : This function should not be modified, when the callback is needed,
            the HAL_TIMEx_CommutCallback could be implemented in the user file
   */
}
 8002660:	46c0      	nop			@ (mov r8, r8)
 8002662:	46bd      	mov	sp, r7
 8002664:	b002      	add	sp, #8
 8002666:	bd80      	pop	{r7, pc}

08002668 <HAL_TIMEx_BreakCallback>:
  * @brief  Break detection callback in non-blocking mode
  * @param  htim TIM handle
  * @retval None
  */
__weak void HAL_TIMEx_BreakCallback(TIM_HandleTypeDef *htim)
{
 8002668:	b580      	push	{r7, lr}
 800266a:	b082      	sub	sp, #8
 800266c:	af00      	add	r7, sp, #0
 800266e:	6078      	str	r0, [r7, #4]
  UNUSED(htim);

  /* NOTE : This function should not be modified, when the callback is needed,
            the HAL_TIMEx_BreakCallback could be implemented in the user file
   */
}
 8002670:	46c0      	nop			@ (mov r8, r8)
 8002672:	46bd      	mov	sp, r7
 8002674:	b002      	add	sp, #8
 8002676:	bd80      	pop	{r7, pc}

08002678 <HAL_TIMEx_Break2Callback>:
  * @brief  Break2 detection callback in non blocking mode
  * @param  htim: TIM handle
  * @retval None
  */
__weak void HAL_TIMEx_Break2Callback(TIM_HandleTypeDef *htim)
{
 8002678:	b580      	push	{r7, lr}
 800267a:	b082      	sub	sp, #8
 800267c:	af00      	add	r7, sp, #0
 800267e:	6078      	str	r0, [r7, #4]
  UNUSED(htim);

  /* NOTE : This function Should not be modified, when the callback is needed,
            the HAL_TIMEx_Break2Callback could be implemented in the user file
   */
}
 8002680:	46c0      	nop			@ (mov r8, r8)
 8002682:	46bd      	mov	sp, r7
 8002684:	b002      	add	sp, #8
 8002686:	bd80      	pop	{r7, pc}

08002688 <memset>:
 8002688:	0003      	movs	r3, r0
 800268a:	1882      	adds	r2, r0, r2
 800268c:	4293      	cmp	r3, r2
 800268e:	d100      	bne.n	8002692 <memset+0xa>
 8002690:	4770      	bx	lr
 8002692:	7019      	strb	r1, [r3, #0]
 8002694:	3301      	adds	r3, #1
 8002696:	e7f9      	b.n	800268c <memset+0x4>

08002698 <__libc_init_array>:
 8002698:	b570      	push	{r4, r5, r6, lr}
 800269a:	2600      	movs	r6, #0
 800269c:	4c0c      	ldr	r4, [pc, #48]	@ (80026d0 <__libc_init_array+0x38>)
 800269e:	4d0d      	ldr	r5, [pc, #52]	@ (80026d4 <__libc_init_array+0x3c>)
 80026a0:	1b64      	subs	r4, r4, r5
 80026a2:	10a4      	asrs	r4, r4, #2
 80026a4:	42a6      	cmp	r6, r4
 80026a6:	d109      	bne.n	80026bc <__libc_init_array+0x24>
 80026a8:	2600      	movs	r6, #0
 80026aa:	f000 f819 	bl	80026e0 <_init>
 80026ae:	4c0a      	ldr	r4, [pc, #40]	@ (80026d8 <__libc_init_array+0x40>)
 80026b0:	4d0a      	ldr	r5, [pc, #40]	@ (80026dc <__libc_init_array+0x44>)
 80026b2:	1b64      	subs	r4, r4, r5
 80026b4:	10a4      	asrs	r4, r4, #2
 80026b6:	42a6      	cmp	r6, r4
 80026b8:	d105      	bne.n	80026c6 <__libc_init_array+0x2e>
 80026ba:	bd70      	pop	{r4, r5, r6, pc}
 80026bc:	00b3      	lsls	r3, r6, #2
 80026be:	58eb      	ldr	r3, [r5, r3]
 80026c0:	4798      	blx	r3
 80026c2:	3601      	adds	r6, #1
 80026c4:	e7ee      	b.n	80026a4 <__libc_init_array+0xc>
 80026c6:	00b3      	lsls	r3, r6, #2
 80026c8:	58eb      	ldr	r3, [r5, r3]
 80026ca:	4798      	blx	r3
 80026cc:	3601      	adds	r6, #1
 80026ce:	e7f2      	b.n	80026b6 <__libc_init_array+0x1e>
 80026d0:	0800278c 	.word	0x0800278c
 80026d4:	0800278c 	.word	0x0800278c
 80026d8:	08002790 	.word	0x08002790
 80026dc:	0800278c 	.word	0x0800278c

080026e0 <_init>:
 80026e0:	b5f8      	push	{r3, r4, r5, r6, r7, lr}
 80026e2:	46c0      	nop			@ (mov r8, r8)
 80026e4:	bcf8      	pop	{r3, r4, r5, r6, r7}
 80026e6:	bc08      	pop	{r3}
 80026e8:	469e      	mov	lr, r3
 80026ea:	4770      	bx	lr

080026ec <_fini>:
 80026ec:	b5f8      	push	{r3, r4, r5, r6, r7, lr}
 80026ee:	46c0      	nop			@ (mov r8, r8)
 80026f0:	bcf8      	pop	{r3, r4, r5, r6, r7}
 80026f2:	bc08      	pop	{r3}
 80026f4:	469e      	mov	lr, r3
 80026f6:	4770      	bx	lr
